TMS320C2000 Assembler PC v16.9.1 Wed Jan 04 15:50:42 2017

Tools Copyright (c) 1996-2015 Texas Instruments Incorporated
C:\Users\ROSSYE~1\AppData\Local\Temp\0152010                         PAGE    1

       1              ;***************************************************************
       2              ;* TMS320C2000 C/C++ Codegen                    PC v16.9.1.LTS *
       3              ;* Date/Time created: Wed Jan 04 15:50:42 2017                 *
       4              ;***************************************************************
       5                      .compiler_opts --abi=coffabi --float_support=softlib --hll_source=on --mem_model:code=flat --mem_mode
       6                      .asg    XAR2, FP
       7              
       8              $C$DW$CU        .dwtag  DW_TAG_compile_unit
       9                      .dwattr $C$DW$CU, DW_AT_name("C:/ti/motorware/motorware_1_01_00_17/sw/drivers/pie/src/32b/f28x/f2802x
      10                      .dwattr $C$DW$CU, DW_AT_producer("TI TMS320C2000 C/C++ Codegen PC v16.9.1.LTS Copyright (c) 1996-2015
      11                      .dwattr $C$DW$CU, DW_AT_TI_version(0x01)
      12                      .dwattr $C$DW$CU, DW_AT_comp_dir("C:\ti\motorware\motorware_1_01_00_17\sw\solutions\instaspin_foc\boa
      13              ;       C:\ti\ccsv7\tools\compiler\ti-cgt-c2000_16.9.1.LTS\bin\opt2000.exe C:\\Users\\ROSSYE~1\\AppData\\Loca
      14              ;       C:\ti\ccsv7\tools\compiler\ti-cgt-c2000_16.9.1.LTS\bin\ac2000.exe -@C:\\Users\\ROSSYE~1\\AppData\\Loc
      15 00000000               .sect   ".text"
      16                      .clink
      17                      .global _PIE_unregisterSystemIntHandler
      18              
      19              $C$DW$1 .dwtag  DW_TAG_subprogram
      20                      .dwattr $C$DW$1, DW_AT_name("PIE_unregisterSystemIntHandler")
      21                      .dwattr $C$DW$1, DW_AT_low_pc(_PIE_unregisterSystemIntHandler)
      22                      .dwattr $C$DW$1, DW_AT_high_pc(0x00)
      23                      .dwattr $C$DW$1, DW_AT_TI_symbol_name("_PIE_unregisterSystemIntHandler")
      24                      .dwattr $C$DW$1, DW_AT_external
      25                      .dwattr $C$DW$1, DW_AT_TI_begin_file("C:/ti/motorware/motorware_1_01_00_17/sw/drivers/pie/src/32b/f28
      26                      .dwattr $C$DW$1, DW_AT_TI_begin_line(0x1d9)
      27                      .dwattr $C$DW$1, DW_AT_TI_begin_column(0x06)
      28                      .dwattr $C$DW$1, DW_AT_TI_max_frame_size(-2)
      29                      .dwpsn  file "C:/ti/motorware/motorware_1_01_00_17/sw/drivers/pie/src/32b/f28x/f2802x/pie.c",line 475
      30              
      31                      .dwfde $C$DW$CIE, _PIE_unregisterSystemIntHandler
      32              $C$DW$2 .dwtag  DW_TAG_formal_parameter
      33                      .dwattr $C$DW$2, DW_AT_name("pieHandle")
      34                      .dwattr $C$DW$2, DW_AT_TI_symbol_name("_pieHandle")
      35                      .dwattr $C$DW$2, DW_AT_type(*$C$DW$T$62)
      36                      .dwattr $C$DW$2, DW_AT_location[DW_OP_reg12]
      37              
      38              $C$DW$3 .dwtag  DW_TAG_formal_parameter
      39                      .dwattr $C$DW$3, DW_AT_name("systemInt")
      40                      .dwattr $C$DW$3, DW_AT_TI_symbol_name("_systemInt")
      41                      .dwattr $C$DW$3, DW_AT_type(*$C$DW$T$53)
      42                      .dwattr $C$DW$3, DW_AT_location[DW_OP_reg0]
      43              
      44              
      45              ;***************************************************************
      46              ;* FNAME: _PIE_unregisterSystemIntHandler FR SIZE:   0           *
      47              ;*                                                             *
      48              ;* FUNCTION ENVIRONMENT                                        *
      49              ;*                                                             *
      50              ;* FUNCTION PROPERTIES                                         *
      51              ;*                            0 Parameter,  0 Auto,  0 SOE     *
      52              ;***************************************************************
      53              
      54              _PIE_unregisterSystemIntHandler:
      55              ;* AR4   assigned to _pieHandle
TMS320C2000 Assembler PC v16.9.1 Wed Jan 04 15:50:42 2017

Tools Copyright (c) 1996-2015 Texas Instruments Incorporated
C:\Users\ROSSYE~1\AppData\Local\Temp\0152010                         PAGE    2

      56              $C$DW$4 .dwtag  DW_TAG_variable
      57                      .dwattr $C$DW$4, DW_AT_name("pieHandle")
      58                      .dwattr $C$DW$4, DW_AT_TI_symbol_name("_pieHandle")
      59                      .dwattr $C$DW$4, DW_AT_type(*$C$DW$T$63)
      60                      .dwattr $C$DW$4, DW_AT_location[DW_OP_reg12]
      61              
      62                      .dwcfi  cfa_offset, -2
      63                      .dwcfi  save_reg_to_mem, 26, 0
      64 00000000 7622   EALLOW
      65 00000001 2901          CLRC      SXM                   ; [CPU_] 
      66                      .dwpsn  file "C:/ti/motorware/motorware_1_01_00_17/sw/drivers/pie/src/32b/f28x/f2802x/pie.c",line 488
      67 00000002 5603          MOV       ACC,AL << 1           ; [CPU_] |488| 
         00000003 01A9 
      68 00000004 5601          ADDL      XAR4,ACC              ; [CPU_] |488| 
         00000005 00A4 
      69 00000006 D020          MOVB      XAR0,#32              ; [CPU_] |488| 
      70 00000007 8F40+         MOVL      XAR5,#_PIE_illegalIsr ; [CPU_U] |488| 
         00000008 0000 
      71 00000009 A094          MOVL      *+XAR4[AR0],XAR5      ; [CPU_] |488| 
      72 0000000a 761A   EDIS
      73 0000000b FF69          SPM       #0                    ; [CPU_] 
      74              $C$DW$5 .dwtag  DW_TAG_TI_branch
      75                      .dwattr $C$DW$5, DW_AT_low_pc(0x00)
      76                      .dwattr $C$DW$5, DW_AT_TI_return
      77              
      78 0000000c 0006          LRETR     ; [CPU_] 
      79                      ; return occurs ; [] 
      80                      .dwattr $C$DW$1, DW_AT_TI_end_file("C:/ti/motorware/motorware_1_01_00_17/sw/drivers/pie/src/32b/f28x/
      81                      .dwattr $C$DW$1, DW_AT_TI_end_line(0x1ed)
      82                      .dwattr $C$DW$1, DW_AT_TI_end_column(0x01)
      83                      .dwendentry
      84                      .dwendtag $C$DW$1
      85              
      86 0000000d               .sect   ".text"
      87                      .clink
      88                      .global _PIE_unregisterPieIntHandler
      89              
      90              $C$DW$6 .dwtag  DW_TAG_subprogram
      91                      .dwattr $C$DW$6, DW_AT_name("PIE_unregisterPieIntHandler")
      92                      .dwattr $C$DW$6, DW_AT_low_pc(_PIE_unregisterPieIntHandler)
      93                      .dwattr $C$DW$6, DW_AT_high_pc(0x00)
      94                      .dwattr $C$DW$6, DW_AT_TI_symbol_name("_PIE_unregisterPieIntHandler")
      95                      .dwattr $C$DW$6, DW_AT_external
      96                      .dwattr $C$DW$6, DW_AT_TI_begin_file("C:/ti/motorware/motorware_1_01_00_17/sw/drivers/pie/src/32b/f28
      97                      .dwattr $C$DW$6, DW_AT_TI_begin_line(0x1be)
      98                      .dwattr $C$DW$6, DW_AT_TI_begin_column(0x06)
      99                      .dwattr $C$DW$6, DW_AT_TI_max_frame_size(-2)
     100                      .dwpsn  file "C:/ti/motorware/motorware_1_01_00_17/sw/drivers/pie/src/32b/f28x/f2802x/pie.c",line 449
     101              
     102                      .dwfde $C$DW$CIE, _PIE_unregisterPieIntHandler
     103              $C$DW$7 .dwtag  DW_TAG_formal_parameter
     104                      .dwattr $C$DW$7, DW_AT_name("pieHandle")
     105                      .dwattr $C$DW$7, DW_AT_TI_symbol_name("_pieHandle")
     106                      .dwattr $C$DW$7, DW_AT_type(*$C$DW$T$62)
     107                      .dwattr $C$DW$7, DW_AT_location[DW_OP_reg12]
TMS320C2000 Assembler PC v16.9.1 Wed Jan 04 15:50:42 2017

Tools Copyright (c) 1996-2015 Texas Instruments Incorporated
C:\Users\ROSSYE~1\AppData\Local\Temp\0152010                         PAGE    3

     108              
     109              $C$DW$8 .dwtag  DW_TAG_formal_parameter
     110                      .dwattr $C$DW$8, DW_AT_name("groupNumber")
     111                      .dwattr $C$DW$8, DW_AT_TI_symbol_name("_groupNumber")
     112                      .dwattr $C$DW$8, DW_AT_type(*$C$DW$T$38)
     113                      .dwattr $C$DW$8, DW_AT_location[DW_OP_reg0]
     114              
     115              $C$DW$9 .dwtag  DW_TAG_formal_parameter
     116                      .dwattr $C$DW$9, DW_AT_name("subGroupNumber")
     117                      .dwattr $C$DW$9, DW_AT_TI_symbol_name("_subGroupNumber")
     118                      .dwattr $C$DW$9, DW_AT_type(*$C$DW$T$50)
     119                      .dwattr $C$DW$9, DW_AT_location[DW_OP_reg1]
     120              
     121              
     122              ;***************************************************************
     123              ;* FNAME: _PIE_unregisterPieIntHandler  FR SIZE:   0           *
     124              ;*                                                             *
     125              ;* FUNCTION ENVIRONMENT                                        *
     126              ;*                                                             *
     127              ;* FUNCTION PROPERTIES                                         *
     128              ;*                            0 Parameter,  0 Auto,  0 SOE     *
     129              ;***************************************************************
     130              
     131              _PIE_unregisterPieIntHandler:
     132              ;* AR4   assigned to _pieHandle
     133              $C$DW$10        .dwtag  DW_TAG_variable
     134                      .dwattr $C$DW$10, DW_AT_name("pieHandle")
     135                      .dwattr $C$DW$10, DW_AT_TI_symbol_name("_pieHandle")
     136                      .dwattr $C$DW$10, DW_AT_type(*$C$DW$T$63)
     137                      .dwattr $C$DW$10, DW_AT_location[DW_OP_reg12]
     138              
     139              ;* AL    assigned to _groupNumber
     140              $C$DW$11        .dwtag  DW_TAG_variable
     141                      .dwattr $C$DW$11, DW_AT_name("groupNumber")
     142                      .dwattr $C$DW$11, DW_AT_TI_symbol_name("_groupNumber")
     143                      .dwattr $C$DW$11, DW_AT_type(*$C$DW$T$39)
     144                      .dwattr $C$DW$11, DW_AT_location[DW_OP_reg0]
     145              
     146              ;* AH    assigned to _subGroupNumber
     147              $C$DW$12        .dwtag  DW_TAG_variable
     148                      .dwattr $C$DW$12, DW_AT_name("subGroupNumber")
     149                      .dwattr $C$DW$12, DW_AT_TI_symbol_name("_subGroupNumber")
     150                      .dwattr $C$DW$12, DW_AT_type(*$C$DW$T$51)
     151                      .dwattr $C$DW$12, DW_AT_location[DW_OP_reg1]
     152              
     153                      .dwcfi  cfa_offset, -2
     154                      .dwcfi  save_reg_to_mem, 26, 0
     155 0000000d 7622   EALLOW
     156                      .dwpsn  file "C:/ti/motorware/motorware_1_01_00_17/sw/drivers/pie/src/32b/f28x/f2802x/pie.c",line 465
     157 0000000e 27A8          MOV       PL,AH                 ; [CPU_] |465| 
     158 0000000f 2901          CLRC      SXM                   ; [CPU_] 
     159 00000010 2BAA          MOV       PH,#0                 ; [CPU_] |465| 
     160 00000011 FF68          SPM       #1                    ; [CPU_] 
     161 00000012 5603          MOV       ACC,AL << #3          ; [CPU_] |465| 
         00000013 03A9 
TMS320C2000 Assembler PC v16.9.1 Wed Jan 04 15:50:42 2017

Tools Copyright (c) 1996-2015 Texas Instruments Incorporated
C:\Users\ROSSYE~1\AppData\Local\Temp\0152010                         PAGE    4

     162 00000014 5603          MOV       ACC,AL << 1           ; [CPU_] |465| 
         00000015 01A9 
     163 00000016 10AC          ADDL      ACC,P << PM           ; [CPU_] |465| 
     164 00000017 5601          ADDL      XAR4,ACC              ; [CPU_] |465| 
         00000018 00A4 
     165 00000019 D060          MOVB      XAR0,#96              ; [CPU_] |465| 
     166 0000001a 8F40+         MOVL      XAR5,#_PIE_illegalIsr ; [CPU_U] |465| 
         0000001b 0000 
     167 0000001c A094          MOVL      *+XAR4[AR0],XAR5      ; [CPU_] |465| 
     168 0000001d 761A   EDIS
     169 0000001e FF69          SPM       #0                    ; [CPU_] 
     170              $C$DW$13        .dwtag  DW_TAG_TI_branch
     171                      .dwattr $C$DW$13, DW_AT_low_pc(0x00)
     172                      .dwattr $C$DW$13, DW_AT_TI_return
     173              
     174 0000001f 0006          LRETR     ; [CPU_] 
     175                      ; return occurs ; [] 
     176                      .dwattr $C$DW$6, DW_AT_TI_end_file("C:/ti/motorware/motorware_1_01_00_17/sw/drivers/pie/src/32b/f28x/
     177                      .dwattr $C$DW$6, DW_AT_TI_end_line(0x1d6)
     178                      .dwattr $C$DW$6, DW_AT_TI_end_column(0x01)
     179                      .dwendentry
     180                      .dwendtag $C$DW$6
     181              
     182 00000020               .sect   ".text"
     183                      .clink
     184                      .global _PIE_setExtIntPolarity
     185              
     186              $C$DW$14        .dwtag  DW_TAG_subprogram
     187                      .dwattr $C$DW$14, DW_AT_name("PIE_setExtIntPolarity")
     188                      .dwattr $C$DW$14, DW_AT_low_pc(_PIE_setExtIntPolarity)
     189                      .dwattr $C$DW$14, DW_AT_high_pc(0x00)
     190                      .dwattr $C$DW$14, DW_AT_TI_symbol_name("_PIE_setExtIntPolarity")
     191                      .dwattr $C$DW$14, DW_AT_external
     192                      .dwattr $C$DW$14, DW_AT_TI_begin_file("C:/ti/motorware/motorware_1_01_00_17/sw/drivers/pie/src/32b/f2
     193                      .dwattr $C$DW$14, DW_AT_TI_begin_line(0x1ad)
     194                      .dwattr $C$DW$14, DW_AT_TI_begin_column(0x06)
     195                      .dwattr $C$DW$14, DW_AT_TI_max_frame_size(-2)
     196                      .dwpsn  file "C:/ti/motorware/motorware_1_01_00_17/sw/drivers/pie/src/32b/f28x/f2802x/pie.c",line 432
     197              
     198                      .dwfde $C$DW$CIE, _PIE_setExtIntPolarity
     199              $C$DW$15        .dwtag  DW_TAG_formal_parameter
     200                      .dwattr $C$DW$15, DW_AT_name("pieHandle")
     201                      .dwattr $C$DW$15, DW_AT_TI_symbol_name("_pieHandle")
     202                      .dwattr $C$DW$15, DW_AT_type(*$C$DW$T$62)
     203                      .dwattr $C$DW$15, DW_AT_location[DW_OP_reg12]
     204              
     205              $C$DW$16        .dwtag  DW_TAG_formal_parameter
     206                      .dwattr $C$DW$16, DW_AT_name("intNumber")
     207                      .dwattr $C$DW$16, DW_AT_TI_symbol_name("_intNumber")
     208                      .dwattr $C$DW$16, DW_AT_type(*$C$DW$T$35)
     209                      .dwattr $C$DW$16, DW_AT_location[DW_OP_reg0]
     210              
     211              $C$DW$17        .dwtag  DW_TAG_formal_parameter
     212                      .dwattr $C$DW$17, DW_AT_name("polarity")
     213                      .dwattr $C$DW$17, DW_AT_TI_symbol_name("_polarity")
TMS320C2000 Assembler PC v16.9.1 Wed Jan 04 15:50:42 2017

Tools Copyright (c) 1996-2015 Texas Instruments Incorporated
C:\Users\ROSSYE~1\AppData\Local\Temp\0152010                         PAGE    5

     214                      .dwattr $C$DW$17, DW_AT_type(*$C$DW$T$56)
     215                      .dwattr $C$DW$17, DW_AT_location[DW_OP_reg1]
     216              
     217              
     218              ;***************************************************************
     219              ;* FNAME: _PIE_setExtIntPolarity        FR SIZE:   0           *
     220              ;*                                                             *
     221              ;* FUNCTION ENVIRONMENT                                        *
     222              ;*                                                             *
     223              ;* FUNCTION PROPERTIES                                         *
     224              ;*                            0 Parameter,  0 Auto,  0 SOE     *
     225              ;***************************************************************
     226              
     227              _PIE_setExtIntPolarity:
     228              ;* AR4   assigned to $O$C1
     229              ;* AR4   assigned to _pieHandle
     230              $C$DW$18        .dwtag  DW_TAG_variable
     231                      .dwattr $C$DW$18, DW_AT_name("pieHandle")
     232                      .dwattr $C$DW$18, DW_AT_TI_symbol_name("_pieHandle")
     233                      .dwattr $C$DW$18, DW_AT_type(*$C$DW$T$63)
     234                      .dwattr $C$DW$18, DW_AT_location[DW_OP_reg12]
     235              
     236              ;* AR7   assigned to _intNumber
     237              $C$DW$19        .dwtag  DW_TAG_variable
     238                      .dwattr $C$DW$19, DW_AT_name("intNumber")
     239                      .dwattr $C$DW$19, DW_AT_TI_symbol_name("_intNumber")
     240                      .dwattr $C$DW$19, DW_AT_type(*$C$DW$T$36)
     241                      .dwattr $C$DW$19, DW_AT_location[DW_OP_reg18]
     242              
     243              ;* AR6   assigned to _polarity
     244              $C$DW$20        .dwtag  DW_TAG_variable
     245                      .dwattr $C$DW$20, DW_AT_name("polarity")
     246                      .dwattr $C$DW$20, DW_AT_TI_symbol_name("_polarity")
     247                      .dwattr $C$DW$20, DW_AT_type(*$C$DW$T$57)
     248                      .dwattr $C$DW$20, DW_AT_location[DW_OP_reg16]
     249              
     250                      .dwcfi  cfa_offset, -2
     251                      .dwcfi  save_reg_to_mem, 26, 0
     252 00000020 80A9          MOVZ      AR7,AL                ; [CPU_] |432| 
     253 00000021 88A8          MOVZ      AR6,AH                ; [CPU_] |432| 
     254                      .dwpsn  file "C:/ti/motorware/motorware_1_01_00_17/sw/drivers/pie/src/32b/f28x/f2802x/pie.c",line 437
     255 00000022 A8A9          MOVL      ACC,XAR4              ; [CPU_] |437| 
     256 00000023 0DA7          ADDU      ACC,AR7               ; [CPU_] |437| 
     257 00000024 8AA9          MOVL      XAR4,ACC              ; [CPU_] |437| 
     258 00000025 FF14          ADD       ACC,#1593 << 4        ; [CPU_] |437| 
         00000026 0639 
     259 00000027 83A9          MOVL      XAR5,ACC              ; [CPU_] |437| 
     260                      .dwpsn  file "C:/ti/motorware/motorware_1_01_00_17/sw/drivers/pie/src/32b/f28x/f2802x/pie.c",line 440
     261 00000028 A8A9          MOVL      ACC,XAR4              ; [CPU_] |440| 
     262 00000029 FF14          ADD       ACC,#1593 << 4        ; [CPU_] |440| 
         0000002a 0639 
     263 0000002b 8AA9          MOVL      XAR4,ACC              ; [CPU_] |440| 
     264                      .dwpsn  file "C:/ti/motorware/motorware_1_01_00_17/sw/drivers/pie/src/32b/f28x/f2802x/pie.c",line 437
     265 0000002c 18C5          AND       *+XAR5[0],#0xfff3     ; [CPU_] |437| 
         0000002d FFF3 
TMS320C2000 Assembler PC v16.9.1 Wed Jan 04 15:50:42 2017

Tools Copyright (c) 1996-2015 Texas Instruments Incorporated
C:\Users\ROSSYE~1\AppData\Local\Temp\0152010                         PAGE    6

     266                      .dwpsn  file "C:/ti/motorware/motorware_1_01_00_17/sw/drivers/pie/src/32b/f28x/f2802x/pie.c",line 440
     267 0000002e 92A6          MOV       AL,AR6                ; [CPU_] |440| 
     268 0000002f 98C4          OR        *+XAR4[0],AL          ; [CPU_] |440| 
     269              $C$DW$21        .dwtag  DW_TAG_TI_branch
     270                      .dwattr $C$DW$21, DW_AT_low_pc(0x00)
     271                      .dwattr $C$DW$21, DW_AT_TI_return
     272              
     273 00000030 0006          LRETR     ; [CPU_] 
     274                      ; return occurs ; [] 
     275                      .dwattr $C$DW$14, DW_AT_TI_end_file("C:/ti/motorware/motorware_1_01_00_17/sw/drivers/pie/src/32b/f28x
     276                      .dwattr $C$DW$14, DW_AT_TI_end_line(0x1bb)
     277                      .dwattr $C$DW$14, DW_AT_TI_end_column(0x01)
     278                      .dwendentry
     279                      .dwendtag $C$DW$14
     280              
     281 00000031               .sect   ".text"
     282                      .clink
     283                      .global _PIE_setDefaultIntVectorTable
     284              
     285              $C$DW$22        .dwtag  DW_TAG_subprogram
     286                      .dwattr $C$DW$22, DW_AT_name("PIE_setDefaultIntVectorTable")
     287                      .dwattr $C$DW$22, DW_AT_low_pc(_PIE_setDefaultIntVectorTable)
     288                      .dwattr $C$DW$22, DW_AT_high_pc(0x00)
     289                      .dwattr $C$DW$22, DW_AT_TI_symbol_name("_PIE_setDefaultIntVectorTable")
     290                      .dwattr $C$DW$22, DW_AT_external
     291                      .dwattr $C$DW$22, DW_AT_TI_begin_file("C:/ti/motorware/motorware_1_01_00_17/sw/drivers/pie/src/32b/f2
     292                      .dwattr $C$DW$22, DW_AT_TI_begin_line(0x182)
     293                      .dwattr $C$DW$22, DW_AT_TI_begin_column(0x06)
     294                      .dwattr $C$DW$22, DW_AT_TI_max_frame_size(-2)
     295                      .dwpsn  file "C:/ti/motorware/motorware_1_01_00_17/sw/drivers/pie/src/32b/f28x/f2802x/pie.c",line 387
     296              
     297                      .dwfde $C$DW$CIE, _PIE_setDefaultIntVectorTable
     298              $C$DW$23        .dwtag  DW_TAG_formal_parameter
     299                      .dwattr $C$DW$23, DW_AT_name("pieHandle")
     300                      .dwattr $C$DW$23, DW_AT_TI_symbol_name("_pieHandle")
     301                      .dwattr $C$DW$23, DW_AT_type(*$C$DW$T$62)
     302                      .dwattr $C$DW$23, DW_AT_location[DW_OP_reg12]
     303              
     304              
     305              ;***************************************************************
     306              ;* FNAME: _PIE_setDefaultIntVectorTable FR SIZE:   0           *
     307              ;*                                                             *
     308              ;* FUNCTION ENVIRONMENT                                        *
     309              ;*                                                             *
     310              ;* FUNCTION PROPERTIES                                         *
     311              ;*                            0 Parameter,  0 Auto,  0 SOE     *
     312              ;***************************************************************
     313              
     314              _PIE_setDefaultIntVectorTable:
     315              ;* AR4   assigned to _addr
     316              $C$DW$24        .dwtag  DW_TAG_variable
     317                      .dwattr $C$DW$24, DW_AT_name("addr")
     318                      .dwattr $C$DW$24, DW_AT_TI_symbol_name("_addr")
     319                      .dwattr $C$DW$24, DW_AT_type(*$C$DW$T$71)
     320                      .dwattr $C$DW$24, DW_AT_location[DW_OP_reg12]
TMS320C2000 Assembler PC v16.9.1 Wed Jan 04 15:50:42 2017

Tools Copyright (c) 1996-2015 Texas Instruments Incorporated
C:\Users\ROSSYE~1\AppData\Local\Temp\0152010                         PAGE    7

     321              
     322                      .dwcfi  cfa_offset, -2
     323                      .dwcfi  save_reg_to_mem, 26, 0
     324                      .dwpsn  file "C:/ti/motorware/motorware_1_01_00_17/sw/drivers/pie/src/32b/f28x/f2802x/pie.c",line 389
     325 00000031 DC22          ADDB      XAR4,#34              ; [CPU_] |389| 
     326 00000032 7622   EALLOW
     327 00000033 BE77          MOVB      XAR6,#119             ; [CPU_] 
     328                      .dwpsn  file "C:/ti/motorware/motorware_1_01_00_17/sw/drivers/pie/src/32b/f28x/f2802x/pie.c",line 397
     329 00000034 8F40+         MOVL      XAR5,#_PIE_illegalIsr ; [CPU_U] |397| 
         00000035 0000 
     330 00000036       $C$L1:    
     331 00000036 A084          MOVL      *XAR4++,XAR5          ; [CPU_] |397| 
     332                      .dwpsn  file "C:/ti/motorware/motorware_1_01_00_17/sw/drivers/pie/src/32b/f28x/f2802x/pie.c",line 395
     333 00000037 000E          BANZ      $C$L1,AR6--           ; [CPU_] |395| 
         00000038 FFFF 
     334                      ; branchcc occurs ; [] |395| 
     335 00000039 761A   EDIS
     336 0000003a FF69          SPM       #0                    ; [CPU_] 
     337              $C$DW$25        .dwtag  DW_TAG_TI_branch
     338                      .dwattr $C$DW$25, DW_AT_low_pc(0x00)
     339                      .dwattr $C$DW$25, DW_AT_TI_return
     340              
     341 0000003b 0006          LRETR     ; [CPU_] 
     342                      ; return occurs ; [] 
     343                      .dwattr $C$DW$22, DW_AT_TI_end_file("C:/ti/motorware/motorware_1_01_00_17/sw/drivers/pie/src/32b/f28x
     344                      .dwattr $C$DW$22, DW_AT_TI_end_line(0x193)
     345                      .dwattr $C$DW$22, DW_AT_TI_end_column(0x01)
     346                      .dwendentry
     347                      .dwendtag $C$DW$22
     348              
     349 0000003c               .sect   ".text"
     350                      .clink
     351                      .global _PIE_registerSystemIntHandler
     352              
     353              $C$DW$26        .dwtag  DW_TAG_subprogram
     354                      .dwattr $C$DW$26, DW_AT_name("PIE_registerSystemIntHandler")
     355                      .dwattr $C$DW$26, DW_AT_low_pc(_PIE_registerSystemIntHandler)
     356                      .dwattr $C$DW$26, DW_AT_high_pc(0x00)
     357                      .dwattr $C$DW$26, DW_AT_TI_symbol_name("_PIE_registerSystemIntHandler")
     358                      .dwattr $C$DW$26, DW_AT_external
     359                      .dwattr $C$DW$26, DW_AT_TI_begin_file("C:/ti/motorware/motorware_1_01_00_17/sw/drivers/pie/src/32b/f2
     360                      .dwattr $C$DW$26, DW_AT_TI_begin_line(0x16a)
     361                      .dwattr $C$DW$26, DW_AT_TI_begin_column(0x06)
     362                      .dwattr $C$DW$26, DW_AT_TI_max_frame_size(-2)
     363                      .dwpsn  file "C:/ti/motorware/motorware_1_01_00_17/sw/drivers/pie/src/32b/f28x/f2802x/pie.c",line 365
     364              
     365                      .dwfde $C$DW$CIE, _PIE_registerSystemIntHandler
     366              $C$DW$27        .dwtag  DW_TAG_formal_parameter
     367                      .dwattr $C$DW$27, DW_AT_name("pieHandle")
     368                      .dwattr $C$DW$27, DW_AT_TI_symbol_name("_pieHandle")
     369                      .dwattr $C$DW$27, DW_AT_type(*$C$DW$T$62)
     370                      .dwattr $C$DW$27, DW_AT_location[DW_OP_reg12]
     371              
     372              $C$DW$28        .dwtag  DW_TAG_formal_parameter
     373                      .dwattr $C$DW$28, DW_AT_name("systemInt")
TMS320C2000 Assembler PC v16.9.1 Wed Jan 04 15:50:42 2017

Tools Copyright (c) 1996-2015 Texas Instruments Incorporated
C:\Users\ROSSYE~1\AppData\Local\Temp\0152010                         PAGE    8

     374                      .dwattr $C$DW$28, DW_AT_TI_symbol_name("_systemInt")
     375                      .dwattr $C$DW$28, DW_AT_type(*$C$DW$T$53)
     376                      .dwattr $C$DW$28, DW_AT_location[DW_OP_reg0]
     377              
     378              $C$DW$29        .dwtag  DW_TAG_formal_parameter
     379                      .dwattr $C$DW$29, DW_AT_name("vector")
     380                      .dwattr $C$DW$29, DW_AT_TI_symbol_name("_vector")
     381                      .dwattr $C$DW$29, DW_AT_type(*$C$DW$T$28)
     382                      .dwattr $C$DW$29, DW_AT_location[DW_OP_reg14]
     383              
     384              
     385              ;***************************************************************
     386              ;* FNAME: _PIE_registerSystemIntHandler FR SIZE:   0           *
     387              ;*                                                             *
     388              ;* FUNCTION ENVIRONMENT                                        *
     389              ;*                                                             *
     390              ;* FUNCTION PROPERTIES                                         *
     391              ;*                            0 Parameter,  0 Auto,  0 SOE     *
     392              ;***************************************************************
     393              
     394              _PIE_registerSystemIntHandler:
     395              ;* AR4   assigned to _pieHandle
     396              $C$DW$30        .dwtag  DW_TAG_variable
     397                      .dwattr $C$DW$30, DW_AT_name("pieHandle")
     398                      .dwattr $C$DW$30, DW_AT_TI_symbol_name("_pieHandle")
     399                      .dwattr $C$DW$30, DW_AT_type(*$C$DW$T$63)
     400                      .dwattr $C$DW$30, DW_AT_location[DW_OP_reg12]
     401              
     402              ;* AR5   assigned to _vector
     403              $C$DW$31        .dwtag  DW_TAG_variable
     404                      .dwattr $C$DW$31, DW_AT_name("vector")
     405                      .dwattr $C$DW$31, DW_AT_TI_symbol_name("_vector")
     406                      .dwattr $C$DW$31, DW_AT_type(*$C$DW$T$70)
     407                      .dwattr $C$DW$31, DW_AT_location[DW_OP_reg14]
     408              
     409                      .dwcfi  cfa_offset, -2
     410                      .dwcfi  save_reg_to_mem, 26, 0
     411 0000003c 7622   EALLOW
     412 0000003d 2901          CLRC      SXM                   ; [CPU_] 
     413                      .dwpsn  file "C:/ti/motorware/motorware_1_01_00_17/sw/drivers/pie/src/32b/f28x/f2802x/pie.c",line 378
     414 0000003e 5603          MOV       ACC,AL << 1           ; [CPU_] |378| 
         0000003f 01A9 
     415 00000040 5601          ADDL      XAR4,ACC              ; [CPU_] |378| 
         00000041 00A4 
     416 00000042 D020          MOVB      XAR0,#32              ; [CPU_] |378| 
     417 00000043 A094          MOVL      *+XAR4[AR0],XAR5      ; [CPU_] |378| 
     418 00000044 761A   EDIS
     419 00000045 FF69          SPM       #0                    ; [CPU_] 
     420              $C$DW$32        .dwtag  DW_TAG_TI_branch
     421                      .dwattr $C$DW$32, DW_AT_low_pc(0x00)
     422                      .dwattr $C$DW$32, DW_AT_TI_return
     423              
     424 00000046 0006          LRETR     ; [CPU_] 
     425                      ; return occurs ; [] 
     426                      .dwattr $C$DW$26, DW_AT_TI_end_file("C:/ti/motorware/motorware_1_01_00_17/sw/drivers/pie/src/32b/f28x
TMS320C2000 Assembler PC v16.9.1 Wed Jan 04 15:50:42 2017

Tools Copyright (c) 1996-2015 Texas Instruments Incorporated
C:\Users\ROSSYE~1\AppData\Local\Temp\0152010                         PAGE    9

     427                      .dwattr $C$DW$26, DW_AT_TI_end_line(0x17f)
     428                      .dwattr $C$DW$26, DW_AT_TI_end_column(0x01)
     429                      .dwendentry
     430                      .dwendtag $C$DW$26
     431              
     432 00000047               .sect   ".text"
     433                      .clink
     434                      .global _PIE_registerPieIntHandler
     435              
     436              $C$DW$33        .dwtag  DW_TAG_subprogram
     437                      .dwattr $C$DW$33, DW_AT_name("PIE_registerPieIntHandler")
     438                      .dwattr $C$DW$33, DW_AT_low_pc(_PIE_registerPieIntHandler)
     439                      .dwattr $C$DW$33, DW_AT_high_pc(0x00)
     440                      .dwattr $C$DW$33, DW_AT_TI_symbol_name("_PIE_registerPieIntHandler")
     441                      .dwattr $C$DW$33, DW_AT_external
     442                      .dwattr $C$DW$33, DW_AT_TI_begin_file("C:/ti/motorware/motorware_1_01_00_17/sw/drivers/pie/src/32b/f2
     443                      .dwattr $C$DW$33, DW_AT_TI_begin_line(0x14e)
     444                      .dwattr $C$DW$33, DW_AT_TI_begin_column(0x06)
     445                      .dwattr $C$DW$33, DW_AT_TI_max_frame_size(-2)
     446                      .dwpsn  file "C:/ti/motorware/motorware_1_01_00_17/sw/drivers/pie/src/32b/f28x/f2802x/pie.c",line 338
     447              
     448                      .dwfde $C$DW$CIE, _PIE_registerPieIntHandler
     449              $C$DW$34        .dwtag  DW_TAG_formal_parameter
     450                      .dwattr $C$DW$34, DW_AT_name("pieHandle")
     451                      .dwattr $C$DW$34, DW_AT_TI_symbol_name("_pieHandle")
     452                      .dwattr $C$DW$34, DW_AT_type(*$C$DW$T$62)
     453                      .dwattr $C$DW$34, DW_AT_location[DW_OP_reg12]
     454              
     455              $C$DW$35        .dwtag  DW_TAG_formal_parameter
     456                      .dwattr $C$DW$35, DW_AT_name("groupNumber")
     457                      .dwattr $C$DW$35, DW_AT_TI_symbol_name("_groupNumber")
     458                      .dwattr $C$DW$35, DW_AT_type(*$C$DW$T$38)
     459                      .dwattr $C$DW$35, DW_AT_location[DW_OP_reg0]
     460              
     461              $C$DW$36        .dwtag  DW_TAG_formal_parameter
     462                      .dwattr $C$DW$36, DW_AT_name("subGroupNumber")
     463                      .dwattr $C$DW$36, DW_AT_TI_symbol_name("_subGroupNumber")
     464                      .dwattr $C$DW$36, DW_AT_type(*$C$DW$T$50)
     465                      .dwattr $C$DW$36, DW_AT_location[DW_OP_reg1]
     466              
     467              $C$DW$37        .dwtag  DW_TAG_formal_parameter
     468                      .dwattr $C$DW$37, DW_AT_name("vector")
     469                      .dwattr $C$DW$37, DW_AT_TI_symbol_name("_vector")
     470                      .dwattr $C$DW$37, DW_AT_type(*$C$DW$T$28)
     471                      .dwattr $C$DW$37, DW_AT_location[DW_OP_reg14]
     472              
     473              
     474              ;***************************************************************
     475              ;* FNAME: _PIE_registerPieIntHandler    FR SIZE:   0           *
     476              ;*                                                             *
     477              ;* FUNCTION ENVIRONMENT                                        *
     478              ;*                                                             *
     479              ;* FUNCTION PROPERTIES                                         *
     480              ;*                            0 Parameter,  0 Auto,  0 SOE     *
     481              ;***************************************************************
TMS320C2000 Assembler PC v16.9.1 Wed Jan 04 15:50:42 2017

Tools Copyright (c) 1996-2015 Texas Instruments Incorporated
C:\Users\ROSSYE~1\AppData\Local\Temp\0152010                         PAGE   10

     482              
     483              _PIE_registerPieIntHandler:
     484              ;* AR4   assigned to _pieHandle
     485              $C$DW$38        .dwtag  DW_TAG_variable
     486                      .dwattr $C$DW$38, DW_AT_name("pieHandle")
     487                      .dwattr $C$DW$38, DW_AT_TI_symbol_name("_pieHandle")
     488                      .dwattr $C$DW$38, DW_AT_type(*$C$DW$T$63)
     489                      .dwattr $C$DW$38, DW_AT_location[DW_OP_reg12]
     490              
     491              ;* AL    assigned to _groupNumber
     492              $C$DW$39        .dwtag  DW_TAG_variable
     493                      .dwattr $C$DW$39, DW_AT_name("groupNumber")
     494                      .dwattr $C$DW$39, DW_AT_TI_symbol_name("_groupNumber")
     495                      .dwattr $C$DW$39, DW_AT_type(*$C$DW$T$39)
     496                      .dwattr $C$DW$39, DW_AT_location[DW_OP_reg0]
     497              
     498              ;* AH    assigned to _subGroupNumber
     499              $C$DW$40        .dwtag  DW_TAG_variable
     500                      .dwattr $C$DW$40, DW_AT_name("subGroupNumber")
     501                      .dwattr $C$DW$40, DW_AT_TI_symbol_name("_subGroupNumber")
     502                      .dwattr $C$DW$40, DW_AT_type(*$C$DW$T$51)
     503                      .dwattr $C$DW$40, DW_AT_location[DW_OP_reg1]
     504              
     505              ;* AR5   assigned to _vector
     506              $C$DW$41        .dwtag  DW_TAG_variable
     507                      .dwattr $C$DW$41, DW_AT_name("vector")
     508                      .dwattr $C$DW$41, DW_AT_TI_symbol_name("_vector")
     509                      .dwattr $C$DW$41, DW_AT_type(*$C$DW$T$70)
     510                      .dwattr $C$DW$41, DW_AT_location[DW_OP_reg14]
     511              
     512                      .dwcfi  cfa_offset, -2
     513                      .dwcfi  save_reg_to_mem, 26, 0
     514 00000047 7622   EALLOW
     515                      .dwpsn  file "C:/ti/motorware/motorware_1_01_00_17/sw/drivers/pie/src/32b/f28x/f2802x/pie.c",line 354
     516 00000048 27A8          MOV       PL,AH                 ; [CPU_] |354| 
     517 00000049 2901          CLRC      SXM                   ; [CPU_] 
     518 0000004a 2BAA          MOV       PH,#0                 ; [CPU_] |354| 
     519 0000004b FF68          SPM       #1                    ; [CPU_] 
     520 0000004c 5603          MOV       ACC,AL << #3          ; [CPU_] |354| 
         0000004d 03A9 
     521 0000004e 5603          MOV       ACC,AL << 1           ; [CPU_] |354| 
         0000004f 01A9 
     522 00000050 10AC          ADDL      ACC,P << PM           ; [CPU_] |354| 
     523 00000051 5601          ADDL      XAR4,ACC              ; [CPU_] |354| 
         00000052 00A4 
     524 00000053 D060          MOVB      XAR0,#96              ; [CPU_] |354| 
     525 00000054 A094          MOVL      *+XAR4[AR0],XAR5      ; [CPU_] |354| 
     526 00000055 761A   EDIS
     527 00000056 FF69          SPM       #0                    ; [CPU_] 
     528              $C$DW$42        .dwtag  DW_TAG_TI_branch
     529                      .dwattr $C$DW$42, DW_AT_low_pc(0x00)
     530                      .dwattr $C$DW$42, DW_AT_TI_return
     531              
     532 00000057 0006          LRETR     ; [CPU_] 
     533                      ; return occurs ; [] 
TMS320C2000 Assembler PC v16.9.1 Wed Jan 04 15:50:42 2017

Tools Copyright (c) 1996-2015 Texas Instruments Incorporated
C:\Users\ROSSYE~1\AppData\Local\Temp\0152010                         PAGE   11

     534                      .dwattr $C$DW$33, DW_AT_TI_end_file("C:/ti/motorware/motorware_1_01_00_17/sw/drivers/pie/src/32b/f28x
     535                      .dwattr $C$DW$33, DW_AT_TI_end_line(0x167)
     536                      .dwattr $C$DW$33, DW_AT_TI_end_column(0x01)
     537                      .dwendentry
     538                      .dwendtag $C$DW$33
     539              
     540 00000058               .sect   ".text"
     541                      .clink
     542                      .global _PIE_init
     543              
     544              $C$DW$43        .dwtag  DW_TAG_subprogram
     545                      .dwattr $C$DW$43, DW_AT_name("PIE_init")
     546                      .dwattr $C$DW$43, DW_AT_low_pc(_PIE_init)
     547                      .dwattr $C$DW$43, DW_AT_high_pc(0x00)
     548                      .dwattr $C$DW$43, DW_AT_TI_symbol_name("_PIE_init")
     549                      .dwattr $C$DW$43, DW_AT_external
     550                      .dwattr $C$DW$43, DW_AT_type(*$C$DW$T$62)
     551                      .dwattr $C$DW$43, DW_AT_TI_begin_file("C:/ti/motorware/motorware_1_01_00_17/sw/drivers/pie/src/32b/f2
     552                      .dwattr $C$DW$43, DW_AT_TI_begin_line(0x13e)
     553                      .dwattr $C$DW$43, DW_AT_TI_begin_column(0x0c)
     554                      .dwattr $C$DW$43, DW_AT_TI_max_frame_size(-2)
     555                      .dwpsn  file "C:/ti/motorware/motorware_1_01_00_17/sw/drivers/pie/src/32b/f28x/f2802x/pie.c",line 319
     556              
     557                      .dwfde $C$DW$CIE, _PIE_init
     558              $C$DW$44        .dwtag  DW_TAG_formal_parameter
     559                      .dwattr $C$DW$44, DW_AT_name("pMemory")
     560                      .dwattr $C$DW$44, DW_AT_TI_symbol_name("_pMemory")
     561                      .dwattr $C$DW$44, DW_AT_type(*$C$DW$T$3)
     562                      .dwattr $C$DW$44, DW_AT_location[DW_OP_reg12]
     563              
     564              $C$DW$45        .dwtag  DW_TAG_formal_parameter
     565                      .dwattr $C$DW$45, DW_AT_name("numBytes")
     566                      .dwattr $C$DW$45, DW_AT_TI_symbol_name("_numBytes")
     567                      .dwattr $C$DW$45, DW_AT_type(*$C$DW$T$64)
     568                      .dwattr $C$DW$45, DW_AT_location[DW_OP_reg0]
     569              
     570              
     571              ;***************************************************************
     572              ;* FNAME: _PIE_init                     FR SIZE:   0           *
     573              ;*                                                             *
     574              ;* FUNCTION ENVIRONMENT                                        *
     575              ;*                                                             *
     576              ;* FUNCTION PROPERTIES                                         *
     577              ;*                            0 Parameter,  0 Auto,  0 SOE     *
     578              ;***************************************************************
     579              
     580              _PIE_init:
     581              ;* AR6   assigned to _numBytes
     582              $C$DW$46        .dwtag  DW_TAG_variable
     583                      .dwattr $C$DW$46, DW_AT_name("numBytes")
     584                      .dwattr $C$DW$46, DW_AT_TI_symbol_name("_numBytes")
     585                      .dwattr $C$DW$46, DW_AT_type(*$C$DW$T$65)
     586                      .dwattr $C$DW$46, DW_AT_location[DW_OP_reg16]
     587              
     588                      .dwcfi  cfa_offset, -2
TMS320C2000 Assembler PC v16.9.1 Wed Jan 04 15:50:42 2017

Tools Copyright (c) 1996-2015 Texas Instruments Incorporated
C:\Users\ROSSYE~1\AppData\Local\Temp\0152010                         PAGE   12

     589                      .dwcfi  save_reg_to_mem, 26, 0
     590 00000058 1EA6          MOVL      XAR6,ACC              ; [CPU_] |319| 
     591                      .dwpsn  file "C:/ti/motorware/motorware_1_01_00_17/sw/drivers/pie/src/32b/f28x/f2802x/pie.c",line 324
     592 00000059 8F40          MOVL      XAR5,#25500           ; [CPU_U] |324| 
         0000005a 639C 
     593 0000005b A0A9          MOVL      ACC,XAR5              ; [CPU_] |324| 
     594 0000005c 0FA6          CMPL      ACC,XAR6              ; [CPU_] |324| 
     595 0000005d 6902          B         $C$L2,LOS             ; [CPU_] |324| 
     596                      ; branchcc occurs ; [] |324| 
     597 0000005e D400          MOVB      XAR4,#0               ; [CPU_] |324| 
     598              $C$L2:    
     599              $C$DW$47        .dwtag  DW_TAG_TI_branch
     600                      .dwattr $C$DW$47, DW_AT_low_pc(0x00)
     601                      .dwattr $C$DW$47, DW_AT_TI_return
     602              
     603 0000005f 0006          LRETR     ; [CPU_] 
     604                      ; return occurs ; [] 
     605                      .dwattr $C$DW$43, DW_AT_TI_end_file("C:/ti/motorware/motorware_1_01_00_17/sw/drivers/pie/src/32b/f28x
     606                      .dwattr $C$DW$43, DW_AT_TI_end_line(0x14a)
     607                      .dwattr $C$DW$43, DW_AT_TI_end_column(0x01)
     608                      .dwendentry
     609                      .dwendtag $C$DW$43
     610              
     611 00000000               .sect   ".text:retain"
     612                      .retain
     613                      .retainrefs
     614                      .global _PIE_illegalIsr
     615              
     616              $C$DW$48        .dwtag  DW_TAG_subprogram
     617                      .dwattr $C$DW$48, DW_AT_name("PIE_illegalIsr")
     618                      .dwattr $C$DW$48, DW_AT_low_pc(_PIE_illegalIsr)
     619                      .dwattr $C$DW$48, DW_AT_high_pc(0x00)
     620                      .dwattr $C$DW$48, DW_AT_TI_symbol_name("_PIE_illegalIsr")
     621                      .dwattr $C$DW$48, DW_AT_external
     622                      .dwattr $C$DW$48, DW_AT_TI_begin_file("C:/ti/motorware/motorware_1_01_00_17/sw/drivers/pie/src/32b/f2
     623                      .dwattr $C$DW$48, DW_AT_TI_begin_line(0x132)
     624                      .dwattr $C$DW$48, DW_AT_TI_begin_column(0x10)
     625                      .dwattr $C$DW$48, DW_AT_TI_interrupt
     626                      .dwattr $C$DW$48, DW_AT_TI_max_frame_size(-2)
     627                      .dwpsn  file "C:/ti/motorware/motorware_1_01_00_17/sw/drivers/pie/src/32b/f28x/f2802x/pie.c",line 307
     628              
     629                      .dwfde $C$DW$CIE, _PIE_illegalIsr
     630              
     631              ;***************************************************************
     632              ;* FNAME: _PIE_illegalIsr               FR SIZE:   0           *
     633              ;*                                                             *
     634              ;* FUNCTION ENVIRONMENT                                        *
     635              ;*                                                             *
     636              ;* FUNCTION PROPERTIES                                         *
     637              ;*                            0 Parameter,  0 Auto,  0 SOE     *
     638              ;***************************************************************
     639              
     640 00000000       _PIE_illegalIsr:
     641                      .dwcfi  cfa_offset, -2
     642                      .dwcfi  save_reg_to_mem, 26, 0
TMS320C2000 Assembler PC v16.9.1 Wed Jan 04 15:50:42 2017

Tools Copyright (c) 1996-2015 Texas Instruments Incorporated
C:\Users\ROSSYE~1\AppData\Local\Temp\0152010                         PAGE   13

     643 00000000 761B          ASP       ; [CPU_] 
     644 00000001 2942          CLRC      PAGE0,OVM             ; [CPU_] 
     645 00000002 5616          CLRC      AMODE                 ; [CPU_] 
     646 00000003 7625   ESTOP0
     647 00000004       $C$L3:    
     648                      .dwpsn  file "C:/ti/motorware/motorware_1_01_00_17/sw/drivers/pie/src/32b/f28x/f2802x/pie.c",line 313
     649 00000004 6F00          B         $C$L3,UNC             ; [CPU_] |313| 
     650                      ; branch occurs ; [] |313| 
     651                      .dwattr $C$DW$48, DW_AT_TI_end_file("C:/ti/motorware/motorware_1_01_00_17/sw/drivers/pie/src/32b/f28x
     652                      .dwattr $C$DW$48, DW_AT_TI_end_line(0x13b)
     653                      .dwattr $C$DW$48, DW_AT_TI_end_column(0x01)
     654                      .dwendentry
     655                      .dwendtag $C$DW$48
     656              
     657 00000060               .sect   ".text"
     658                      .clink
     659                      .global _PIE_getIntFlags
     660              
     661              $C$DW$49        .dwtag  DW_TAG_subprogram
     662                      .dwattr $C$DW$49, DW_AT_name("PIE_getIntFlags")
     663                      .dwattr $C$DW$49, DW_AT_low_pc(_PIE_getIntFlags)
     664                      .dwattr $C$DW$49, DW_AT_high_pc(0x00)
     665                      .dwattr $C$DW$49, DW_AT_TI_symbol_name("_PIE_getIntFlags")
     666                      .dwattr $C$DW$49, DW_AT_external
     667                      .dwattr $C$DW$49, DW_AT_type(*$C$DW$T$19)
     668                      .dwattr $C$DW$49, DW_AT_TI_begin_file("C:/ti/motorware/motorware_1_01_00_17/sw/drivers/pie/src/32b/f2
     669                      .dwattr $C$DW$49, DW_AT_TI_begin_line(0x12a)
     670                      .dwattr $C$DW$49, DW_AT_TI_begin_column(0x0a)
     671                      .dwattr $C$DW$49, DW_AT_TI_max_frame_size(-2)
     672                      .dwpsn  file "C:/ti/motorware/motorware_1_01_00_17/sw/drivers/pie/src/32b/f28x/f2802x/pie.c",line 299
     673              
     674                      .dwfde $C$DW$CIE, _PIE_getIntFlags
     675              $C$DW$50        .dwtag  DW_TAG_formal_parameter
     676                      .dwattr $C$DW$50, DW_AT_name("pieHandle")
     677                      .dwattr $C$DW$50, DW_AT_TI_symbol_name("_pieHandle")
     678                      .dwattr $C$DW$50, DW_AT_type(*$C$DW$T$62)
     679                      .dwattr $C$DW$50, DW_AT_location[DW_OP_reg12]
     680              
     681              $C$DW$51        .dwtag  DW_TAG_formal_parameter
     682                      .dwattr $C$DW$51, DW_AT_name("group")
     683                      .dwattr $C$DW$51, DW_AT_TI_symbol_name("_group")
     684                      .dwattr $C$DW$51, DW_AT_type(*$C$DW$T$38)
     685                      .dwattr $C$DW$51, DW_AT_location[DW_OP_reg0]
     686              
     687              
     688              ;***************************************************************
     689              ;* FNAME: _PIE_getIntFlags              FR SIZE:   0           *
     690              ;*                                                             *
     691              ;* FUNCTION ENVIRONMENT                                        *
     692              ;*                                                             *
     693              ;* FUNCTION PROPERTIES                                         *
     694              ;*                            0 Parameter,  0 Auto,  0 SOE     *
     695              ;***************************************************************
     696              
     697              _PIE_getIntFlags:
TMS320C2000 Assembler PC v16.9.1 Wed Jan 04 15:50:42 2017

Tools Copyright (c) 1996-2015 Texas Instruments Incorporated
C:\Users\ROSSYE~1\AppData\Local\Temp\0152010                         PAGE   14

     698              ;* AR4   assigned to _pieHandle
     699              $C$DW$52        .dwtag  DW_TAG_variable
     700                      .dwattr $C$DW$52, DW_AT_name("pieHandle")
     701                      .dwattr $C$DW$52, DW_AT_TI_symbol_name("_pieHandle")
     702                      .dwattr $C$DW$52, DW_AT_type(*$C$DW$T$63)
     703                      .dwattr $C$DW$52, DW_AT_location[DW_OP_reg12]
     704              
     705                      .dwcfi  cfa_offset, -2
     706                      .dwcfi  save_reg_to_mem, 26, 0
     707 00000060 2901          CLRC      SXM                   ; [CPU_] 
     708                      .dwpsn  file "C:/ti/motorware/motorware_1_01_00_17/sw/drivers/pie/src/32b/f28x/f2802x/pie.c",line 302
     709 00000061 5603          MOV       ACC,AL << 1           ; [CPU_] |302| 
         00000062 01A9 
     710 00000063 5601          ADDL      XAR4,ACC              ; [CPU_] |302| 
         00000064 00A4 
     711 00000065 92DC          MOV       AL,*+XAR4[3]          ; [CPU_] |302| 
     712              $C$DW$53        .dwtag  DW_TAG_TI_branch
     713                      .dwattr $C$DW$53, DW_AT_low_pc(0x00)
     714                      .dwattr $C$DW$53, DW_AT_TI_return
     715              
     716 00000066 0006          LRETR     ; [CPU_] 
     717                      ; return occurs ; [] 
     718                      .dwattr $C$DW$49, DW_AT_TI_end_file("C:/ti/motorware/motorware_1_01_00_17/sw/drivers/pie/src/32b/f28x
     719                      .dwattr $C$DW$49, DW_AT_TI_end_line(0x12f)
     720                      .dwattr $C$DW$49, DW_AT_TI_end_column(0x01)
     721                      .dwendentry
     722                      .dwendtag $C$DW$49
     723              
     724 00000067               .sect   ".text"
     725                      .clink
     726                      .global _PIE_getIntEnables
     727              
     728              $C$DW$54        .dwtag  DW_TAG_subprogram
     729                      .dwattr $C$DW$54, DW_AT_name("PIE_getIntEnables")
     730                      .dwattr $C$DW$54, DW_AT_low_pc(_PIE_getIntEnables)
     731                      .dwattr $C$DW$54, DW_AT_high_pc(0x00)
     732                      .dwattr $C$DW$54, DW_AT_TI_symbol_name("_PIE_getIntEnables")
     733                      .dwattr $C$DW$54, DW_AT_external
     734                      .dwattr $C$DW$54, DW_AT_type(*$C$DW$T$19)
     735                      .dwattr $C$DW$54, DW_AT_TI_begin_file("C:/ti/motorware/motorware_1_01_00_17/sw/drivers/pie/src/32b/f2
     736                      .dwattr $C$DW$54, DW_AT_TI_begin_line(0x122)
     737                      .dwattr $C$DW$54, DW_AT_TI_begin_column(0x0a)
     738                      .dwattr $C$DW$54, DW_AT_TI_max_frame_size(-2)
     739                      .dwpsn  file "C:/ti/motorware/motorware_1_01_00_17/sw/drivers/pie/src/32b/f28x/f2802x/pie.c",line 291
     740              
     741                      .dwfde $C$DW$CIE, _PIE_getIntEnables
     742              $C$DW$55        .dwtag  DW_TAG_formal_parameter
     743                      .dwattr $C$DW$55, DW_AT_name("pieHandle")
     744                      .dwattr $C$DW$55, DW_AT_TI_symbol_name("_pieHandle")
     745                      .dwattr $C$DW$55, DW_AT_type(*$C$DW$T$62)
     746                      .dwattr $C$DW$55, DW_AT_location[DW_OP_reg12]
     747              
     748              $C$DW$56        .dwtag  DW_TAG_formal_parameter
     749                      .dwattr $C$DW$56, DW_AT_name("group")
     750                      .dwattr $C$DW$56, DW_AT_TI_symbol_name("_group")
TMS320C2000 Assembler PC v16.9.1 Wed Jan 04 15:50:42 2017

Tools Copyright (c) 1996-2015 Texas Instruments Incorporated
C:\Users\ROSSYE~1\AppData\Local\Temp\0152010                         PAGE   15

     751                      .dwattr $C$DW$56, DW_AT_type(*$C$DW$T$38)
     752                      .dwattr $C$DW$56, DW_AT_location[DW_OP_reg0]
     753              
     754              
     755              ;***************************************************************
     756              ;* FNAME: _PIE_getIntEnables            FR SIZE:   0           *
     757              ;*                                                             *
     758              ;* FUNCTION ENVIRONMENT                                        *
     759              ;*                                                             *
     760              ;* FUNCTION PROPERTIES                                         *
     761              ;*                            0 Parameter,  0 Auto,  0 SOE     *
     762              ;***************************************************************
     763              
     764              _PIE_getIntEnables:
     765              ;* AR4   assigned to _pieHandle
     766              $C$DW$57        .dwtag  DW_TAG_variable
     767                      .dwattr $C$DW$57, DW_AT_name("pieHandle")
     768                      .dwattr $C$DW$57, DW_AT_TI_symbol_name("_pieHandle")
     769                      .dwattr $C$DW$57, DW_AT_type(*$C$DW$T$63)
     770                      .dwattr $C$DW$57, DW_AT_location[DW_OP_reg12]
     771              
     772                      .dwcfi  cfa_offset, -2
     773                      .dwcfi  save_reg_to_mem, 26, 0
     774 00000067 2901          CLRC      SXM                   ; [CPU_] 
     775                      .dwpsn  file "C:/ti/motorware/motorware_1_01_00_17/sw/drivers/pie/src/32b/f28x/f2802x/pie.c",line 294
     776 00000068 5603          MOV       ACC,AL << 1           ; [CPU_] |294| 
         00000069 01A9 
     777 0000006a 5601          ADDL      XAR4,ACC              ; [CPU_] |294| 
         0000006b 00A4 
     778 0000006c 92D4          MOV       AL,*+XAR4[2]          ; [CPU_] |294| 
     779              $C$DW$58        .dwtag  DW_TAG_TI_branch
     780                      .dwattr $C$DW$58, DW_AT_low_pc(0x00)
     781                      .dwattr $C$DW$58, DW_AT_TI_return
     782              
     783 0000006d 0006          LRETR     ; [CPU_] 
     784                      ; return occurs ; [] 
     785                      .dwattr $C$DW$54, DW_AT_TI_end_file("C:/ti/motorware/motorware_1_01_00_17/sw/drivers/pie/src/32b/f28x
     786                      .dwattr $C$DW$54, DW_AT_TI_end_line(0x127)
     787                      .dwattr $C$DW$54, DW_AT_TI_end_column(0x01)
     788                      .dwendentry
     789                      .dwendtag $C$DW$54
     790              
     791 0000006e               .sect   ".text"
     792                      .clink
     793                      .global _PIE_getExtIntCount
     794              
     795              $C$DW$59        .dwtag  DW_TAG_subprogram
     796                      .dwattr $C$DW$59, DW_AT_name("PIE_getExtIntCount")
     797                      .dwattr $C$DW$59, DW_AT_low_pc(_PIE_getExtIntCount)
     798                      .dwattr $C$DW$59, DW_AT_high_pc(0x00)
     799                      .dwattr $C$DW$59, DW_AT_TI_symbol_name("_PIE_getExtIntCount")
     800                      .dwattr $C$DW$59, DW_AT_external
     801                      .dwattr $C$DW$59, DW_AT_type(*$C$DW$T$19)
     802                      .dwattr $C$DW$59, DW_AT_TI_begin_file("C:/ti/motorware/motorware_1_01_00_17/sw/drivers/pie/src/32b/f2
     803                      .dwattr $C$DW$59, DW_AT_TI_begin_line(0x116)
TMS320C2000 Assembler PC v16.9.1 Wed Jan 04 15:50:42 2017

Tools Copyright (c) 1996-2015 Texas Instruments Incorporated
C:\Users\ROSSYE~1\AppData\Local\Temp\0152010                         PAGE   16

     804                      .dwattr $C$DW$59, DW_AT_TI_begin_column(0x0a)
     805                      .dwattr $C$DW$59, DW_AT_TI_max_frame_size(-2)
     806                      .dwpsn  file "C:/ti/motorware/motorware_1_01_00_17/sw/drivers/pie/src/32b/f28x/f2802x/pie.c",line 279
     807              
     808                      .dwfde $C$DW$CIE, _PIE_getExtIntCount
     809              $C$DW$60        .dwtag  DW_TAG_formal_parameter
     810                      .dwattr $C$DW$60, DW_AT_name("pieHandle")
     811                      .dwattr $C$DW$60, DW_AT_TI_symbol_name("_pieHandle")
     812                      .dwattr $C$DW$60, DW_AT_type(*$C$DW$T$62)
     813                      .dwattr $C$DW$60, DW_AT_location[DW_OP_reg12]
     814              
     815              $C$DW$61        .dwtag  DW_TAG_formal_parameter
     816                      .dwattr $C$DW$61, DW_AT_name("intNumber")
     817                      .dwattr $C$DW$61, DW_AT_TI_symbol_name("_intNumber")
     818                      .dwattr $C$DW$61, DW_AT_type(*$C$DW$T$35)
     819                      .dwattr $C$DW$61, DW_AT_location[DW_OP_reg0]
     820              
     821              
     822              ;***************************************************************
     823              ;* FNAME: _PIE_getExtIntCount           FR SIZE:   0           *
     824              ;*                                                             *
     825              ;* FUNCTION ENVIRONMENT                                        *
     826              ;*                                                             *
     827              ;* FUNCTION PROPERTIES                                         *
     828              ;*                            0 Parameter,  0 Auto,  0 SOE     *
     829              ;***************************************************************
     830              
     831              _PIE_getExtIntCount:
     832              ;* AL    assigned to _pieHandle
     833              $C$DW$62        .dwtag  DW_TAG_variable
     834                      .dwattr $C$DW$62, DW_AT_name("pieHandle")
     835                      .dwattr $C$DW$62, DW_AT_TI_symbol_name("_pieHandle")
     836                      .dwattr $C$DW$62, DW_AT_type(*$C$DW$T$63)
     837                      .dwattr $C$DW$62, DW_AT_location[DW_OP_reg0]
     838              
     839              ;* AR6   assigned to _intNumber
     840              $C$DW$63        .dwtag  DW_TAG_variable
     841                      .dwattr $C$DW$63, DW_AT_name("intNumber")
     842                      .dwattr $C$DW$63, DW_AT_TI_symbol_name("_intNumber")
     843                      .dwattr $C$DW$63, DW_AT_type(*$C$DW$T$36)
     844                      .dwattr $C$DW$63, DW_AT_location[DW_OP_reg16]
     845              
     846              ;* AL    assigned to _count
     847              $C$DW$64        .dwtag  DW_TAG_variable
     848                      .dwattr $C$DW$64, DW_AT_name("count")
     849                      .dwattr $C$DW$64, DW_AT_TI_symbol_name("_count")
     850                      .dwattr $C$DW$64, DW_AT_type(*$C$DW$T$19)
     851                      .dwattr $C$DW$64, DW_AT_location[DW_OP_reg0]
     852              
     853                      .dwcfi  cfa_offset, -2
     854                      .dwcfi  save_reg_to_mem, 26, 0
     855 0000006e 88A9          MOVZ      AR6,AL                ; [CPU_] |279| 
     856 0000006f A8A9          MOVL      ACC,XAR4              ; [CPU_] |279| 
     857                      .dwpsn  file "C:/ti/motorware/motorware_1_01_00_17/sw/drivers/pie/src/32b/f28x/f2802x/pie.c",line 284
     858 00000070 0DA6          ADDU      ACC,AR6               ; [CPU_] |284| 
TMS320C2000 Assembler PC v16.9.1 Wed Jan 04 15:50:42 2017

Tools Copyright (c) 1996-2015 Texas Instruments Incorporated
C:\Users\ROSSYE~1\AppData\Local\Temp\0152010                         PAGE   17

     859 00000071 FF13          ADD       ACC,#3187 << 3        ; [CPU_] |284| 
         00000072 0C73 
     860 00000073 8AA9          MOVL      XAR4,ACC              ; [CPU_] |284| 
     861 00000074 92C4          MOV       AL,*+XAR4[0]          ; [CPU_] |284| 
     862              $C$DW$65        .dwtag  DW_TAG_TI_branch
     863                      .dwattr $C$DW$65, DW_AT_low_pc(0x00)
     864                      .dwattr $C$DW$65, DW_AT_TI_return
     865              
     866 00000075 0006          LRETR     ; [CPU_] 
     867                      ; return occurs ; [] 
     868                      .dwattr $C$DW$59, DW_AT_TI_end_file("C:/ti/motorware/motorware_1_01_00_17/sw/drivers/pie/src/32b/f28x
     869                      .dwattr $C$DW$59, DW_AT_TI_end_line(0x11f)
     870                      .dwattr $C$DW$59, DW_AT_TI_end_column(0x01)
     871                      .dwendentry
     872                      .dwendtag $C$DW$59
     873              
     874 00000076               .sect   ".text"
     875                      .clink
     876                      .global _PIE_forceInt
     877              
     878              $C$DW$66        .dwtag  DW_TAG_subprogram
     879                      .dwattr $C$DW$66, DW_AT_name("PIE_forceInt")
     880                      .dwattr $C$DW$66, DW_AT_low_pc(_PIE_forceInt)
     881                      .dwattr $C$DW$66, DW_AT_high_pc(0x00)
     882                      .dwattr $C$DW$66, DW_AT_TI_symbol_name("_PIE_forceInt")
     883                      .dwattr $C$DW$66, DW_AT_external
     884                      .dwattr $C$DW$66, DW_AT_TI_begin_file("C:/ti/motorware/motorware_1_01_00_17/sw/drivers/pie/src/32b/f2
     885                      .dwattr $C$DW$66, DW_AT_TI_begin_line(0x10c)
     886                      .dwattr $C$DW$66, DW_AT_TI_begin_column(0x06)
     887                      .dwattr $C$DW$66, DW_AT_TI_max_frame_size(-2)
     888                      .dwpsn  file "C:/ti/motorware/motorware_1_01_00_17/sw/drivers/pie/src/32b/f28x/f2802x/pie.c",line 269
     889              
     890                      .dwfde $C$DW$CIE, _PIE_forceInt
     891              $C$DW$67        .dwtag  DW_TAG_formal_parameter
     892                      .dwattr $C$DW$67, DW_AT_name("pieHandle")
     893                      .dwattr $C$DW$67, DW_AT_TI_symbol_name("_pieHandle")
     894                      .dwattr $C$DW$67, DW_AT_type(*$C$DW$T$62)
     895                      .dwattr $C$DW$67, DW_AT_location[DW_OP_reg12]
     896              
     897              $C$DW$68        .dwtag  DW_TAG_formal_parameter
     898                      .dwattr $C$DW$68, DW_AT_name("group")
     899                      .dwattr $C$DW$68, DW_AT_TI_symbol_name("_group")
     900                      .dwattr $C$DW$68, DW_AT_type(*$C$DW$T$38)
     901                      .dwattr $C$DW$68, DW_AT_location[DW_OP_reg0]
     902              
     903              $C$DW$69        .dwtag  DW_TAG_formal_parameter
     904                      .dwattr $C$DW$69, DW_AT_name("intSource")
     905                      .dwattr $C$DW$69, DW_AT_TI_symbol_name("_intSource")
     906                      .dwattr $C$DW$69, DW_AT_type(*$C$DW$T$41)
     907                      .dwattr $C$DW$69, DW_AT_location[DW_OP_reg1]
     908              
     909              
     910              ;***************************************************************
     911              ;* FNAME: _PIE_forceInt                 FR SIZE:   0           *
     912              ;*                                                             *
TMS320C2000 Assembler PC v16.9.1 Wed Jan 04 15:50:42 2017

Tools Copyright (c) 1996-2015 Texas Instruments Incorporated
C:\Users\ROSSYE~1\AppData\Local\Temp\0152010                         PAGE   18

     913              ;* FUNCTION ENVIRONMENT                                        *
     914              ;*                                                             *
     915              ;* FUNCTION PROPERTIES                                         *
     916              ;*                            0 Parameter,  0 Auto,  0 SOE     *
     917              ;***************************************************************
     918              
     919              _PIE_forceInt:
     920              ;* AR4   assigned to _pieHandle
     921              $C$DW$70        .dwtag  DW_TAG_variable
     922                      .dwattr $C$DW$70, DW_AT_name("pieHandle")
     923                      .dwattr $C$DW$70, DW_AT_TI_symbol_name("_pieHandle")
     924                      .dwattr $C$DW$70, DW_AT_type(*$C$DW$T$63)
     925                      .dwattr $C$DW$70, DW_AT_location[DW_OP_reg12]
     926              
     927              ;* AR6   assigned to _intSource
     928              $C$DW$71        .dwtag  DW_TAG_variable
     929                      .dwattr $C$DW$71, DW_AT_name("intSource")
     930                      .dwattr $C$DW$71, DW_AT_TI_symbol_name("_intSource")
     931                      .dwattr $C$DW$71, DW_AT_type(*$C$DW$T$42)
     932                      .dwattr $C$DW$71, DW_AT_location[DW_OP_reg16]
     933              
     934                      .dwcfi  cfa_offset, -2
     935                      .dwcfi  save_reg_to_mem, 26, 0
     936 00000076 88A8          MOVZ      AR6,AH                ; [CPU_] |269| 
     937 00000077 2901          CLRC      SXM                   ; [CPU_] 
     938                      .dwpsn  file "C:/ti/motorware/motorware_1_01_00_17/sw/drivers/pie/src/32b/f28x/f2802x/pie.c",line 272
     939 00000078 5603          MOV       ACC,AL << 1           ; [CPU_] |272| 
         00000079 01A9 
     940 0000007a 5601          ADDL      XAR4,ACC              ; [CPU_] |272| 
         0000007b 00A4 
     941 0000007c 92A6          MOV       AL,AR6                ; [CPU_] |272| 
     942 0000007d 98DC          OR        *+XAR4[3],AL          ; [CPU_] |272| 
     943              $C$DW$72        .dwtag  DW_TAG_TI_branch
     944                      .dwattr $C$DW$72, DW_AT_low_pc(0x00)
     945                      .dwattr $C$DW$72, DW_AT_TI_return
     946              
     947 0000007e 0006          LRETR     ; [CPU_] 
     948                      ; return occurs ; [] 
     949                      .dwattr $C$DW$66, DW_AT_TI_end_file("C:/ti/motorware/motorware_1_01_00_17/sw/drivers/pie/src/32b/f28x
     950                      .dwattr $C$DW$66, DW_AT_TI_end_line(0x113)
     951                      .dwattr $C$DW$66, DW_AT_TI_end_column(0x01)
     952                      .dwendentry
     953                      .dwendtag $C$DW$66
     954              
     955 0000007f               .sect   ".text"
     956                      .clink
     957                      .global _PIE_enableTimer0Int
     958              
     959              $C$DW$73        .dwtag  DW_TAG_subprogram
     960                      .dwattr $C$DW$73, DW_AT_name("PIE_enableTimer0Int")
     961                      .dwattr $C$DW$73, DW_AT_low_pc(_PIE_enableTimer0Int)
     962                      .dwattr $C$DW$73, DW_AT_high_pc(0x00)
     963                      .dwattr $C$DW$73, DW_AT_TI_symbol_name("_PIE_enableTimer0Int")
     964                      .dwattr $C$DW$73, DW_AT_external
     965                      .dwattr $C$DW$73, DW_AT_TI_begin_file("C:/ti/motorware/motorware_1_01_00_17/sw/drivers/pie/src/32b/f2
TMS320C2000 Assembler PC v16.9.1 Wed Jan 04 15:50:42 2017

Tools Copyright (c) 1996-2015 Texas Instruments Incorporated
C:\Users\ROSSYE~1\AppData\Local\Temp\0152010                         PAGE   19

     966                      .dwattr $C$DW$73, DW_AT_TI_begin_line(0x101)
     967                      .dwattr $C$DW$73, DW_AT_TI_begin_column(0x06)
     968                      .dwattr $C$DW$73, DW_AT_TI_max_frame_size(-2)
     969                      .dwpsn  file "C:/ti/motorware/motorware_1_01_00_17/sw/drivers/pie/src/32b/f28x/f2802x/pie.c",line 258
     970              
     971                      .dwfde $C$DW$CIE, _PIE_enableTimer0Int
     972              $C$DW$74        .dwtag  DW_TAG_formal_parameter
     973                      .dwattr $C$DW$74, DW_AT_name("pieHandle")
     974                      .dwattr $C$DW$74, DW_AT_TI_symbol_name("_pieHandle")
     975                      .dwattr $C$DW$74, DW_AT_type(*$C$DW$T$62)
     976                      .dwattr $C$DW$74, DW_AT_location[DW_OP_reg12]
     977              
     978              
     979              ;***************************************************************
     980              ;* FNAME: _PIE_enableTimer0Int          FR SIZE:   0           *
     981              ;*                                                             *
     982              ;* FUNCTION ENVIRONMENT                                        *
     983              ;*                                                             *
     984              ;* FUNCTION PROPERTIES                                         *
     985              ;*                            0 Parameter,  0 Auto,  0 SOE     *
     986              ;***************************************************************
     987              
     988              _PIE_enableTimer0Int:
     989              ;* AR4   assigned to _pieHandle
     990              $C$DW$75        .dwtag  DW_TAG_variable
     991                      .dwattr $C$DW$75, DW_AT_name("pieHandle")
     992                      .dwattr $C$DW$75, DW_AT_TI_symbol_name("_pieHandle")
     993                      .dwattr $C$DW$75, DW_AT_type(*$C$DW$T$63)
     994                      .dwattr $C$DW$75, DW_AT_location[DW_OP_reg12]
     995              
     996                      .dwcfi  cfa_offset, -2
     997                      .dwcfi  save_reg_to_mem, 26, 0
     998                      .dwpsn  file "C:/ti/motorware/motorware_1_01_00_17/sw/drivers/pie/src/32b/f28x/f2802x/pie.c",line 262
     999 0000007f 1AD4          OR        *+XAR4[2],#0x0040     ; [CPU_] |262| 
         00000080 0040 
    1000              $C$DW$76        .dwtag  DW_TAG_TI_branch
    1001                      .dwattr $C$DW$76, DW_AT_low_pc(0x00)
    1002                      .dwattr $C$DW$76, DW_AT_TI_return
    1003              
    1004 00000081 0006          LRETR     ; [CPU_] 
    1005                      ; return occurs ; [] 
    1006                      .dwattr $C$DW$73, DW_AT_TI_end_file("C:/ti/motorware/motorware_1_01_00_17/sw/drivers/pie/src/32b/f28x
    1007                      .dwattr $C$DW$73, DW_AT_TI_end_line(0x109)
    1008                      .dwattr $C$DW$73, DW_AT_TI_end_column(0x01)
    1009                      .dwendentry
    1010                      .dwendtag $C$DW$73
    1011              
    1012 00000082               .sect   ".text"
    1013                      .clink
    1014                      .global _PIE_enablePwmTzInt
    1015              
    1016              $C$DW$77        .dwtag  DW_TAG_subprogram
    1017                      .dwattr $C$DW$77, DW_AT_name("PIE_enablePwmTzInt")
    1018                      .dwattr $C$DW$77, DW_AT_low_pc(_PIE_enablePwmTzInt)
    1019                      .dwattr $C$DW$77, DW_AT_high_pc(0x00)
TMS320C2000 Assembler PC v16.9.1 Wed Jan 04 15:50:42 2017

Tools Copyright (c) 1996-2015 Texas Instruments Incorporated
C:\Users\ROSSYE~1\AppData\Local\Temp\0152010                         PAGE   20

    1020                      .dwattr $C$DW$77, DW_AT_TI_symbol_name("_PIE_enablePwmTzInt")
    1021                      .dwattr $C$DW$77, DW_AT_external
    1022                      .dwattr $C$DW$77, DW_AT_TI_begin_file("C:/ti/motorware/motorware_1_01_00_17/sw/drivers/pie/src/32b/f2
    1023                      .dwattr $C$DW$77, DW_AT_TI_begin_line(0xf4)
    1024                      .dwattr $C$DW$77, DW_AT_TI_begin_column(0x06)
    1025                      .dwattr $C$DW$77, DW_AT_TI_max_frame_size(-2)
    1026                      .dwpsn  file "C:/ti/motorware/motorware_1_01_00_17/sw/drivers/pie/src/32b/f28x/f2802x/pie.c",line 245
    1027              
    1028                      .dwfde $C$DW$CIE, _PIE_enablePwmTzInt
    1029              $C$DW$78        .dwtag  DW_TAG_formal_parameter
    1030                      .dwattr $C$DW$78, DW_AT_name("pieHandle")
    1031                      .dwattr $C$DW$78, DW_AT_TI_symbol_name("_pieHandle")
    1032                      .dwattr $C$DW$78, DW_AT_type(*$C$DW$T$62)
    1033                      .dwattr $C$DW$78, DW_AT_location[DW_OP_reg12]
    1034              
    1035              $C$DW$79        .dwtag  DW_TAG_formal_parameter
    1036                      .dwattr $C$DW$79, DW_AT_name("pwmNumber")
    1037                      .dwattr $C$DW$79, DW_AT_TI_symbol_name("_pwmNumber")
    1038                      .dwattr $C$DW$79, DW_AT_type(*$C$DW$T$47)
    1039                      .dwattr $C$DW$79, DW_AT_location[DW_OP_reg0]
    1040              
    1041              
    1042              ;***************************************************************
    1043              ;* FNAME: _PIE_enablePwmTzInt           FR SIZE:   0           *
    1044              ;*                                                             *
    1045              ;* FUNCTION ENVIRONMENT                                        *
    1046              ;*                                                             *
    1047              ;* FUNCTION PROPERTIES                                         *
    1048              ;*                            0 Parameter,  0 Auto,  0 SOE     *
    1049              ;***************************************************************
    1050              
    1051              _PIE_enablePwmTzInt:
    1052              ;* AR4   assigned to _pieHandle
    1053              $C$DW$80        .dwtag  DW_TAG_variable
    1054                      .dwattr $C$DW$80, DW_AT_name("pieHandle")
    1055                      .dwattr $C$DW$80, DW_AT_TI_symbol_name("_pieHandle")
    1056                      .dwattr $C$DW$80, DW_AT_type(*$C$DW$T$63)
    1057                      .dwattr $C$DW$80, DW_AT_location[DW_OP_reg12]
    1058              
    1059              ;* T     assigned to _pwmNumber
    1060              $C$DW$81        .dwtag  DW_TAG_variable
    1061                      .dwattr $C$DW$81, DW_AT_name("pwmNumber")
    1062                      .dwattr $C$DW$81, DW_AT_TI_symbol_name("_pwmNumber")
    1063                      .dwattr $C$DW$81, DW_AT_type(*$C$DW$T$48)
    1064                      .dwattr $C$DW$81, DW_AT_location[DW_OP_reg22]
    1065              
    1066                      .dwcfi  cfa_offset, -2
    1067                      .dwcfi  save_reg_to_mem, 26, 0
    1068 00000082 2DA9          MOV       T,AL                  ; [CPU_] |245| 
    1069                      .dwpsn  file "C:/ti/motorware/motorware_1_01_00_17/sw/drivers/pie/src/32b/f28x/f2802x/pie.c",line 252
    1070 00000083 9A01          MOVB      AL,#1                 ; [CPU_] |252| 
    1071 00000084 FF66          LSL       AL,T                  ; [CPU_] |252| 
    1072 00000085 98E4          OR        *+XAR4[4],AL          ; [CPU_] |252| 
    1073              $C$DW$82        .dwtag  DW_TAG_TI_branch
    1074                      .dwattr $C$DW$82, DW_AT_low_pc(0x00)
TMS320C2000 Assembler PC v16.9.1 Wed Jan 04 15:50:42 2017

Tools Copyright (c) 1996-2015 Texas Instruments Incorporated
C:\Users\ROSSYE~1\AppData\Local\Temp\0152010                         PAGE   21

    1075                      .dwattr $C$DW$82, DW_AT_TI_return
    1076              
    1077 00000086 0006          LRETR     ; [CPU_] 
    1078                      ; return occurs ; [] 
    1079                      .dwattr $C$DW$77, DW_AT_TI_end_file("C:/ti/motorware/motorware_1_01_00_17/sw/drivers/pie/src/32b/f28x
    1080                      .dwattr $C$DW$77, DW_AT_TI_end_line(0xff)
    1081                      .dwattr $C$DW$77, DW_AT_TI_end_column(0x01)
    1082                      .dwendentry
    1083                      .dwendtag $C$DW$77
    1084              
    1085 00000087               .sect   ".text"
    1086                      .clink
    1087                      .global _PIE_enablePwmInt
    1088              
    1089              $C$DW$83        .dwtag  DW_TAG_subprogram
    1090                      .dwattr $C$DW$83, DW_AT_name("PIE_enablePwmInt")
    1091                      .dwattr $C$DW$83, DW_AT_low_pc(_PIE_enablePwmInt)
    1092                      .dwattr $C$DW$83, DW_AT_high_pc(0x00)
    1093                      .dwattr $C$DW$83, DW_AT_TI_symbol_name("_PIE_enablePwmInt")
    1094                      .dwattr $C$DW$83, DW_AT_external
    1095                      .dwattr $C$DW$83, DW_AT_TI_begin_file("C:/ti/motorware/motorware_1_01_00_17/sw/drivers/pie/src/32b/f2
    1096                      .dwattr $C$DW$83, DW_AT_TI_begin_line(0xe7)
    1097                      .dwattr $C$DW$83, DW_AT_TI_begin_column(0x06)
    1098                      .dwattr $C$DW$83, DW_AT_TI_max_frame_size(-2)
    1099                      .dwpsn  file "C:/ti/motorware/motorware_1_01_00_17/sw/drivers/pie/src/32b/f28x/f2802x/pie.c",line 232
    1100              
    1101                      .dwfde $C$DW$CIE, _PIE_enablePwmInt
    1102              $C$DW$84        .dwtag  DW_TAG_formal_parameter
    1103                      .dwattr $C$DW$84, DW_AT_name("pieHandle")
    1104                      .dwattr $C$DW$84, DW_AT_TI_symbol_name("_pieHandle")
    1105                      .dwattr $C$DW$84, DW_AT_type(*$C$DW$T$62)
    1106                      .dwattr $C$DW$84, DW_AT_location[DW_OP_reg12]
    1107              
    1108              $C$DW$85        .dwtag  DW_TAG_formal_parameter
    1109                      .dwattr $C$DW$85, DW_AT_name("pwmNumber")
    1110                      .dwattr $C$DW$85, DW_AT_TI_symbol_name("_pwmNumber")
    1111                      .dwattr $C$DW$85, DW_AT_type(*$C$DW$T$47)
    1112                      .dwattr $C$DW$85, DW_AT_location[DW_OP_reg0]
    1113              
    1114              
    1115              ;***************************************************************
    1116              ;* FNAME: _PIE_enablePwmInt             FR SIZE:   0           *
    1117              ;*                                                             *
    1118              ;* FUNCTION ENVIRONMENT                                        *
    1119              ;*                                                             *
    1120              ;* FUNCTION PROPERTIES                                         *
    1121              ;*                            0 Parameter,  0 Auto,  0 SOE     *
    1122              ;***************************************************************
    1123              
    1124              _PIE_enablePwmInt:
    1125              ;* AR4   assigned to _pieHandle
    1126              $C$DW$86        .dwtag  DW_TAG_variable
    1127                      .dwattr $C$DW$86, DW_AT_name("pieHandle")
    1128                      .dwattr $C$DW$86, DW_AT_TI_symbol_name("_pieHandle")
    1129                      .dwattr $C$DW$86, DW_AT_type(*$C$DW$T$63)
TMS320C2000 Assembler PC v16.9.1 Wed Jan 04 15:50:42 2017

Tools Copyright (c) 1996-2015 Texas Instruments Incorporated
C:\Users\ROSSYE~1\AppData\Local\Temp\0152010                         PAGE   22

    1130                      .dwattr $C$DW$86, DW_AT_location[DW_OP_reg12]
    1131              
    1132              ;* T     assigned to _pwmNumber
    1133              $C$DW$87        .dwtag  DW_TAG_variable
    1134                      .dwattr $C$DW$87, DW_AT_name("pwmNumber")
    1135                      .dwattr $C$DW$87, DW_AT_TI_symbol_name("_pwmNumber")
    1136                      .dwattr $C$DW$87, DW_AT_type(*$C$DW$T$48)
    1137                      .dwattr $C$DW$87, DW_AT_location[DW_OP_reg22]
    1138              
    1139                      .dwcfi  cfa_offset, -2
    1140                      .dwcfi  save_reg_to_mem, 26, 0
    1141 00000087 2DA9          MOV       T,AL                  ; [CPU_] |232| 
    1142                      .dwpsn  file "C:/ti/motorware/motorware_1_01_00_17/sw/drivers/pie/src/32b/f28x/f2802x/pie.c",line 239
    1143 00000088 9A01          MOVB      AL,#1                 ; [CPU_] |239| 
    1144 00000089 FF66          LSL       AL,T                  ; [CPU_] |239| 
    1145 0000008a 98F4          OR        *+XAR4[6],AL          ; [CPU_] |239| 
    1146              $C$DW$88        .dwtag  DW_TAG_TI_branch
    1147                      .dwattr $C$DW$88, DW_AT_low_pc(0x00)
    1148                      .dwattr $C$DW$88, DW_AT_TI_return
    1149              
    1150 0000008b 0006          LRETR     ; [CPU_] 
    1151                      ; return occurs ; [] 
    1152                      .dwattr $C$DW$83, DW_AT_TI_end_file("C:/ti/motorware/motorware_1_01_00_17/sw/drivers/pie/src/32b/f28x
    1153                      .dwattr $C$DW$83, DW_AT_TI_end_line(0xf2)
    1154                      .dwattr $C$DW$83, DW_AT_TI_end_column(0x01)
    1155                      .dwendentry
    1156                      .dwendtag $C$DW$83
    1157              
    1158 0000008c               .sect   ".text"
    1159                      .clink
    1160                      .global _PIE_enableInt
    1161              
    1162              $C$DW$89        .dwtag  DW_TAG_subprogram
    1163                      .dwattr $C$DW$89, DW_AT_name("PIE_enableInt")
    1164                      .dwattr $C$DW$89, DW_AT_low_pc(_PIE_enableInt)
    1165                      .dwattr $C$DW$89, DW_AT_high_pc(0x00)
    1166                      .dwattr $C$DW$89, DW_AT_TI_symbol_name("_PIE_enableInt")
    1167                      .dwattr $C$DW$89, DW_AT_external
    1168                      .dwattr $C$DW$89, DW_AT_TI_begin_file("C:/ti/motorware/motorware_1_01_00_17/sw/drivers/pie/src/32b/f2
    1169                      .dwattr $C$DW$89, DW_AT_TI_begin_line(0xdd)
    1170                      .dwattr $C$DW$89, DW_AT_TI_begin_column(0x06)
    1171                      .dwattr $C$DW$89, DW_AT_TI_max_frame_size(-2)
    1172                      .dwpsn  file "C:/ti/motorware/motorware_1_01_00_17/sw/drivers/pie/src/32b/f28x/f2802x/pie.c",line 222
    1173              
    1174                      .dwfde $C$DW$CIE, _PIE_enableInt
    1175              $C$DW$90        .dwtag  DW_TAG_formal_parameter
    1176                      .dwattr $C$DW$90, DW_AT_name("pieHandle")
    1177                      .dwattr $C$DW$90, DW_AT_TI_symbol_name("_pieHandle")
    1178                      .dwattr $C$DW$90, DW_AT_type(*$C$DW$T$62)
    1179                      .dwattr $C$DW$90, DW_AT_location[DW_OP_reg12]
    1180              
    1181              $C$DW$91        .dwtag  DW_TAG_formal_parameter
    1182                      .dwattr $C$DW$91, DW_AT_name("group")
    1183                      .dwattr $C$DW$91, DW_AT_TI_symbol_name("_group")
    1184                      .dwattr $C$DW$91, DW_AT_type(*$C$DW$T$38)
TMS320C2000 Assembler PC v16.9.1 Wed Jan 04 15:50:42 2017

Tools Copyright (c) 1996-2015 Texas Instruments Incorporated
C:\Users\ROSSYE~1\AppData\Local\Temp\0152010                         PAGE   23

    1185                      .dwattr $C$DW$91, DW_AT_location[DW_OP_reg0]
    1186              
    1187              $C$DW$92        .dwtag  DW_TAG_formal_parameter
    1188                      .dwattr $C$DW$92, DW_AT_name("intSource")
    1189                      .dwattr $C$DW$92, DW_AT_TI_symbol_name("_intSource")
    1190                      .dwattr $C$DW$92, DW_AT_type(*$C$DW$T$41)
    1191                      .dwattr $C$DW$92, DW_AT_location[DW_OP_reg1]
    1192              
    1193              
    1194              ;***************************************************************
    1195              ;* FNAME: _PIE_enableInt                FR SIZE:   0           *
    1196              ;*                                                             *
    1197              ;* FUNCTION ENVIRONMENT                                        *
    1198              ;*                                                             *
    1199              ;* FUNCTION PROPERTIES                                         *
    1200              ;*                            0 Parameter,  0 Auto,  0 SOE     *
    1201              ;***************************************************************
    1202              
    1203              _PIE_enableInt:
    1204              ;* AR4   assigned to _pieHandle
    1205              $C$DW$93        .dwtag  DW_TAG_variable
    1206                      .dwattr $C$DW$93, DW_AT_name("pieHandle")
    1207                      .dwattr $C$DW$93, DW_AT_TI_symbol_name("_pieHandle")
    1208                      .dwattr $C$DW$93, DW_AT_type(*$C$DW$T$63)
    1209                      .dwattr $C$DW$93, DW_AT_location[DW_OP_reg12]
    1210              
    1211              ;* AR6   assigned to _intSource
    1212              $C$DW$94        .dwtag  DW_TAG_variable
    1213                      .dwattr $C$DW$94, DW_AT_name("intSource")
    1214                      .dwattr $C$DW$94, DW_AT_TI_symbol_name("_intSource")
    1215                      .dwattr $C$DW$94, DW_AT_type(*$C$DW$T$42)
    1216                      .dwattr $C$DW$94, DW_AT_location[DW_OP_reg16]
    1217              
    1218                      .dwcfi  cfa_offset, -2
    1219                      .dwcfi  save_reg_to_mem, 26, 0
    1220 0000008c 88A8          MOVZ      AR6,AH                ; [CPU_] |222| 
    1221 0000008d 2901          CLRC      SXM                   ; [CPU_] 
    1222                      .dwpsn  file "C:/ti/motorware/motorware_1_01_00_17/sw/drivers/pie/src/32b/f28x/f2802x/pie.c",line 225
    1223 0000008e 5603          MOV       ACC,AL << 1           ; [CPU_] |225| 
         0000008f 01A9 
    1224 00000090 5601          ADDL      XAR4,ACC              ; [CPU_] |225| 
         00000091 00A4 
    1225 00000092 92A6          MOV       AL,AR6                ; [CPU_] |225| 
    1226 00000093 98D4          OR        *+XAR4[2],AL          ; [CPU_] |225| 
    1227              $C$DW$95        .dwtag  DW_TAG_TI_branch
    1228                      .dwattr $C$DW$95, DW_AT_low_pc(0x00)
    1229                      .dwattr $C$DW$95, DW_AT_TI_return
    1230              
    1231 00000094 0006          LRETR     ; [CPU_] 
    1232                      ; return occurs ; [] 
    1233                      .dwattr $C$DW$89, DW_AT_TI_end_file("C:/ti/motorware/motorware_1_01_00_17/sw/drivers/pie/src/32b/f28x
    1234                      .dwattr $C$DW$89, DW_AT_TI_end_line(0xe4)
    1235                      .dwattr $C$DW$89, DW_AT_TI_end_column(0x01)
    1236                      .dwendentry
    1237                      .dwendtag $C$DW$89
TMS320C2000 Assembler PC v16.9.1 Wed Jan 04 15:50:42 2017

Tools Copyright (c) 1996-2015 Texas Instruments Incorporated
C:\Users\ROSSYE~1\AppData\Local\Temp\0152010                         PAGE   24

    1238              
    1239 00000095               .sect   ".text"
    1240                      .clink
    1241                      .global _PIE_enableExtInt
    1242              
    1243              $C$DW$96        .dwtag  DW_TAG_subprogram
    1244                      .dwattr $C$DW$96, DW_AT_name("PIE_enableExtInt")
    1245                      .dwattr $C$DW$96, DW_AT_low_pc(_PIE_enableExtInt)
    1246                      .dwattr $C$DW$96, DW_AT_high_pc(0x00)
    1247                      .dwattr $C$DW$96, DW_AT_TI_symbol_name("_PIE_enableExtInt")
    1248                      .dwattr $C$DW$96, DW_AT_external
    1249                      .dwattr $C$DW$96, DW_AT_TI_begin_file("C:/ti/motorware/motorware_1_01_00_17/sw/drivers/pie/src/32b/f2
    1250                      .dwattr $C$DW$96, DW_AT_TI_begin_line(0xc0)
    1251                      .dwattr $C$DW$96, DW_AT_TI_begin_column(0x06)
    1252                      .dwattr $C$DW$96, DW_AT_TI_max_frame_size(-2)
    1253                      .dwpsn  file "C:/ti/motorware/motorware_1_01_00_17/sw/drivers/pie/src/32b/f28x/f2802x/pie.c",line 193
    1254              
    1255                      .dwfde $C$DW$CIE, _PIE_enableExtInt
    1256              $C$DW$97        .dwtag  DW_TAG_formal_parameter
    1257                      .dwattr $C$DW$97, DW_AT_name("pieHandle")
    1258                      .dwattr $C$DW$97, DW_AT_TI_symbol_name("_pieHandle")
    1259                      .dwattr $C$DW$97, DW_AT_type(*$C$DW$T$62)
    1260                      .dwattr $C$DW$97, DW_AT_location[DW_OP_reg12]
    1261              
    1262              $C$DW$98        .dwtag  DW_TAG_formal_parameter
    1263                      .dwattr $C$DW$98, DW_AT_name("intNumber")
    1264                      .dwattr $C$DW$98, DW_AT_TI_symbol_name("_intNumber")
    1265                      .dwattr $C$DW$98, DW_AT_type(*$C$DW$T$35)
    1266                      .dwattr $C$DW$98, DW_AT_location[DW_OP_reg0]
    1267              
    1268              
    1269              ;***************************************************************
    1270              ;* FNAME: _PIE_enableExtInt             FR SIZE:   0           *
    1271              ;*                                                             *
    1272              ;* FUNCTION ENVIRONMENT                                        *
    1273              ;*                                                             *
    1274              ;* FUNCTION PROPERTIES                                         *
    1275              ;*                            0 Parameter,  0 Auto,  0 SOE     *
    1276              ;***************************************************************
    1277              
    1278              _PIE_enableExtInt:
    1279              ;* AR4   assigned to _pieHandle
    1280              $C$DW$99        .dwtag  DW_TAG_variable
    1281                      .dwattr $C$DW$99, DW_AT_name("pieHandle")
    1282                      .dwattr $C$DW$99, DW_AT_TI_symbol_name("_pieHandle")
    1283                      .dwattr $C$DW$99, DW_AT_type(*$C$DW$T$63)
    1284                      .dwattr $C$DW$99, DW_AT_location[DW_OP_reg12]
    1285              
    1286              ;* AR6   assigned to _intNumber
    1287              $C$DW$100       .dwtag  DW_TAG_variable
    1288                      .dwattr $C$DW$100, DW_AT_name("intNumber")
    1289                      .dwattr $C$DW$100, DW_AT_TI_symbol_name("_intNumber")
    1290                      .dwattr $C$DW$100, DW_AT_type(*$C$DW$T$36)
    1291                      .dwattr $C$DW$100, DW_AT_location[DW_OP_reg16]
    1292              
TMS320C2000 Assembler PC v16.9.1 Wed Jan 04 15:50:42 2017

Tools Copyright (c) 1996-2015 Texas Instruments Incorporated
C:\Users\ROSSYE~1\AppData\Local\Temp\0152010                         PAGE   25

    1293              ;* AR7   assigned to _setValue
    1294              $C$DW$101       .dwtag  DW_TAG_variable
    1295                      .dwattr $C$DW$101, DW_AT_name("setValue")
    1296                      .dwattr $C$DW$101, DW_AT_TI_symbol_name("_setValue")
    1297                      .dwattr $C$DW$101, DW_AT_type(*$C$DW$T$19)
    1298                      .dwattr $C$DW$101, DW_AT_location[DW_OP_reg18]
    1299              
    1300                      .dwcfi  cfa_offset, -2
    1301                      .dwcfi  save_reg_to_mem, 26, 0
    1302                      .dwpsn  file "C:/ti/motorware/motorware_1_01_00_17/sw/drivers/pie/src/32b/f28x/f2802x/pie.c",line 199
    1303 00000095 5202          CMPB      AL,#2                 ; [CPU_] |199| 
    1304                      .dwpsn  file "C:/ti/motorware/motorware_1_01_00_17/sw/drivers/pie/src/32b/f28x/f2802x/pie.c",line 193
    1305 00000096 88A9          MOVZ      AR6,AL                ; [CPU_] |193| 
    1306                      .dwpsn  file "C:/ti/motorware/motorware_1_01_00_17/sw/drivers/pie/src/32b/f28x/f2802x/pie.c",line 199
    1307 00000097 6804          B         $C$L4,LO              ; [CPU_] |199| 
    1308                      ; branchcc occurs ; [] |199| 
    1309                      .dwpsn  file "C:/ti/motorware/motorware_1_01_00_17/sw/drivers/pie/src/32b/f28x/f2802x/pie.c",line 206
    1310 00000098 9A0A          MOVB      AL,#10                ; [CPU_] |206| 
    1311                      .dwpsn  file "C:/ti/motorware/motorware_1_01_00_17/sw/drivers/pie/src/32b/f28x/f2802x/pie.c",line 207
    1312 00000099 B601          MOVB      XAR7,#1               ; [CPU_] |207| 
    1313 0000009a 6F08          B         $C$L5,UNC             ; [CPU_] |207| 
    1314                      ; branch occurs ; [] |207| 
    1315 0000009b       $C$L4:    
    1316                      .dwpsn  file "C:/ti/motorware/motorware_1_01_00_17/sw/drivers/pie/src/32b/f28x/f2802x/pie.c",line 202
    1317 0000009b 28AC          MOV       T,#3                  ; [CPU_] |202| 
         0000009c 0003 
    1318 0000009d 72AC          ADD       T,AL                  ; [CPU_] |202| 
    1319 0000009e 9A01          MOVB      AL,#1                 ; [CPU_] |202| 
    1320 0000009f FF66          LSL       AL,T                  ; [CPU_] |202| 
    1321 000000a0 80A9          MOVZ      AR7,AL                ; [CPU_] |202| 
    1322                      .dwpsn  file "C:/ti/motorware/motorware_1_01_00_17/sw/drivers/pie/src/32b/f28x/f2802x/pie.c",line 201
    1323 000000a1 9A00          MOVB      AL,#0                 ; [CPU_] |201| 
    1324 000000a2       $C$L5:    
    1325 000000a2 2901          CLRC      SXM                   ; [CPU_] 
    1326                      .dwpsn  file "C:/ti/motorware/motorware_1_01_00_17/sw/drivers/pie/src/32b/f28x/f2802x/pie.c",line 212
    1327 000000a3 5603          MOV       ACC,AL << 1           ; [CPU_] |212| 
         000000a4 01A9 
    1328 000000a5 07A4          ADDL      ACC,XAR4              ; [CPU_] |212| 
    1329 000000a6 83A9          MOVL      XAR5,ACC              ; [CPU_] |212| 
    1330 000000a7 92A7          MOV       AL,AR7                ; [CPU_] |212| 
    1331 000000a8 98D5          OR        *+XAR5[2],AL          ; [CPU_] |212| 
    1332                      .dwpsn  file "C:/ti/motorware/motorware_1_01_00_17/sw/drivers/pie/src/32b/f28x/f2802x/pie.c",line 216
    1333 000000a9 A8A9          MOVL      ACC,XAR4              ; [CPU_] |216| 
    1334 000000aa 0DA6          ADDU      ACC,AR6               ; [CPU_] |216| 
    1335 000000ab FF14          ADD       ACC,#1593 << 4        ; [CPU_] |216| 
         000000ac 0639 
    1336 000000ad 8AA9          MOVL      XAR4,ACC              ; [CPU_] |216| 
    1337 000000ae 1AC4          OR        *+XAR4[0],#0x0001     ; [CPU_] |216| 
         000000af 0001 
    1338              $C$DW$102       .dwtag  DW_TAG_TI_branch
    1339                      .dwattr $C$DW$102, DW_AT_low_pc(0x00)
    1340                      .dwattr $C$DW$102, DW_AT_TI_return
    1341              
    1342 000000b0 0006          LRETR     ; [CPU_] 
    1343                      ; return occurs ; [] 
TMS320C2000 Assembler PC v16.9.1 Wed Jan 04 15:50:42 2017

Tools Copyright (c) 1996-2015 Texas Instruments Incorporated
C:\Users\ROSSYE~1\AppData\Local\Temp\0152010                         PAGE   26

    1344                      .dwattr $C$DW$96, DW_AT_TI_end_file("C:/ti/motorware/motorware_1_01_00_17/sw/drivers/pie/src/32b/f28x
    1345                      .dwattr $C$DW$96, DW_AT_TI_end_line(0xdb)
    1346                      .dwattr $C$DW$96, DW_AT_TI_end_column(0x01)
    1347                      .dwendentry
    1348                      .dwendtag $C$DW$96
    1349              
    1350 000000b1               .sect   ".text"
    1351                      .clink
    1352                      .global _PIE_enableCaptureInt
    1353              
    1354              $C$DW$103       .dwtag  DW_TAG_subprogram
    1355                      .dwattr $C$DW$103, DW_AT_name("PIE_enableCaptureInt")
    1356                      .dwattr $C$DW$103, DW_AT_low_pc(_PIE_enableCaptureInt)
    1357                      .dwattr $C$DW$103, DW_AT_high_pc(0x00)
    1358                      .dwattr $C$DW$103, DW_AT_TI_symbol_name("_PIE_enableCaptureInt")
    1359                      .dwattr $C$DW$103, DW_AT_external
    1360                      .dwattr $C$DW$103, DW_AT_TI_begin_file("C:/ti/motorware/motorware_1_01_00_17/sw/drivers/pie/src/32b/f
    1361                      .dwattr $C$DW$103, DW_AT_TI_begin_line(0xb5)
    1362                      .dwattr $C$DW$103, DW_AT_TI_begin_column(0x06)
    1363                      .dwattr $C$DW$103, DW_AT_TI_max_frame_size(-2)
    1364                      .dwpsn  file "C:/ti/motorware/motorware_1_01_00_17/sw/drivers/pie/src/32b/f28x/f2802x/pie.c",line 182
    1365              
    1366                      .dwfde $C$DW$CIE, _PIE_enableCaptureInt
    1367              $C$DW$104       .dwtag  DW_TAG_formal_parameter
    1368                      .dwattr $C$DW$104, DW_AT_name("pieHandle")
    1369                      .dwattr $C$DW$104, DW_AT_TI_symbol_name("_pieHandle")
    1370                      .dwattr $C$DW$104, DW_AT_type(*$C$DW$T$62)
    1371                      .dwattr $C$DW$104, DW_AT_location[DW_OP_reg12]
    1372              
    1373              
    1374              ;***************************************************************
    1375              ;* FNAME: _PIE_enableCaptureInt         FR SIZE:   0           *
    1376              ;*                                                             *
    1377              ;* FUNCTION ENVIRONMENT                                        *
    1378              ;*                                                             *
    1379              ;* FUNCTION PROPERTIES                                         *
    1380              ;*                            0 Parameter,  0 Auto,  0 SOE     *
    1381              ;***************************************************************
    1382              
    1383 000000b1       _PIE_enableCaptureInt:
    1384                      .dwcfi  cfa_offset, -2
    1385                      .dwcfi  save_reg_to_mem, 26, 0
    1386                      .dwpsn  file "C:/ti/motorware/motorware_1_01_00_17/sw/drivers/pie/src/32b/f28x/f2802x/pie.c",line 186
    1387 000000b1 DC08          ADDB      XAR4,#8               ; [CPU_] |186| 
    1388 000000b2 1AC4          OR        *+XAR4[0],#0x0001     ; [CPU_] |186| 
         000000b3 0001 
    1389              $C$DW$105       .dwtag  DW_TAG_TI_branch
    1390                      .dwattr $C$DW$105, DW_AT_low_pc(0x00)
    1391                      .dwattr $C$DW$105, DW_AT_TI_return
    1392              
    1393 000000b4 0006          LRETR     ; [CPU_] 
    1394                      ; return occurs ; [] 
    1395                      .dwattr $C$DW$103, DW_AT_TI_end_file("C:/ti/motorware/motorware_1_01_00_17/sw/drivers/pie/src/32b/f28
    1396                      .dwattr $C$DW$103, DW_AT_TI_end_line(0xbd)
    1397                      .dwattr $C$DW$103, DW_AT_TI_end_column(0x01)
TMS320C2000 Assembler PC v16.9.1 Wed Jan 04 15:50:42 2017

Tools Copyright (c) 1996-2015 Texas Instruments Incorporated
C:\Users\ROSSYE~1\AppData\Local\Temp\0152010                         PAGE   27

    1398                      .dwendentry
    1399                      .dwendtag $C$DW$103
    1400              
    1401 000000b5               .sect   ".text"
    1402                      .clink
    1403                      .global _PIE_enableAdcInt
    1404              
    1405              $C$DW$106       .dwtag  DW_TAG_subprogram
    1406                      .dwattr $C$DW$106, DW_AT_name("PIE_enableAdcInt")
    1407                      .dwattr $C$DW$106, DW_AT_low_pc(_PIE_enableAdcInt)
    1408                      .dwattr $C$DW$106, DW_AT_high_pc(0x00)
    1409                      .dwattr $C$DW$106, DW_AT_TI_symbol_name("_PIE_enableAdcInt")
    1410                      .dwattr $C$DW$106, DW_AT_external
    1411                      .dwattr $C$DW$106, DW_AT_TI_begin_file("C:/ti/motorware/motorware_1_01_00_17/sw/drivers/pie/src/32b/f
    1412                      .dwattr $C$DW$106, DW_AT_TI_begin_line(0x98)
    1413                      .dwattr $C$DW$106, DW_AT_TI_begin_column(0x06)
    1414                      .dwattr $C$DW$106, DW_AT_TI_max_frame_size(-2)
    1415                      .dwpsn  file "C:/ti/motorware/motorware_1_01_00_17/sw/drivers/pie/src/32b/f28x/f2802x/pie.c",line 153
    1416              
    1417                      .dwfde $C$DW$CIE, _PIE_enableAdcInt
    1418              $C$DW$107       .dwtag  DW_TAG_formal_parameter
    1419                      .dwattr $C$DW$107, DW_AT_name("pieHandle")
    1420                      .dwattr $C$DW$107, DW_AT_TI_symbol_name("_pieHandle")
    1421                      .dwattr $C$DW$107, DW_AT_type(*$C$DW$T$62)
    1422                      .dwattr $C$DW$107, DW_AT_location[DW_OP_reg12]
    1423              
    1424              $C$DW$108       .dwtag  DW_TAG_formal_parameter
    1425                      .dwattr $C$DW$108, DW_AT_name("intNumber")
    1426                      .dwattr $C$DW$108, DW_AT_TI_symbol_name("_intNumber")
    1427                      .dwattr $C$DW$108, DW_AT_type(*$C$DW$T$44)
    1428                      .dwattr $C$DW$108, DW_AT_location[DW_OP_reg0]
    1429              
    1430              
    1431              ;***************************************************************
    1432              ;* FNAME: _PIE_enableAdcInt             FR SIZE:   0           *
    1433              ;*                                                             *
    1434              ;* FUNCTION ENVIRONMENT                                        *
    1435              ;*                                                             *
    1436              ;* FUNCTION PROPERTIES                                         *
    1437              ;*                            0 Parameter,  0 Auto,  0 SOE     *
    1438              ;***************************************************************
    1439              
    1440              _PIE_enableAdcInt:
    1441              ;* AR4   assigned to _pieHandle
    1442              $C$DW$109       .dwtag  DW_TAG_variable
    1443                      .dwattr $C$DW$109, DW_AT_name("pieHandle")
    1444                      .dwattr $C$DW$109, DW_AT_TI_symbol_name("_pieHandle")
    1445                      .dwattr $C$DW$109, DW_AT_type(*$C$DW$T$63)
    1446                      .dwattr $C$DW$109, DW_AT_location[DW_OP_reg12]
    1447              
    1448              ;* T     assigned to _intNumber
    1449              $C$DW$110       .dwtag  DW_TAG_variable
    1450                      .dwattr $C$DW$110, DW_AT_name("intNumber")
    1451                      .dwattr $C$DW$110, DW_AT_TI_symbol_name("_intNumber")
    1452                      .dwattr $C$DW$110, DW_AT_type(*$C$DW$T$45)
TMS320C2000 Assembler PC v16.9.1 Wed Jan 04 15:50:42 2017

Tools Copyright (c) 1996-2015 Texas Instruments Incorporated
C:\Users\ROSSYE~1\AppData\Local\Temp\0152010                         PAGE   28

    1453                      .dwattr $C$DW$110, DW_AT_location[DW_OP_reg22]
    1454              
    1455              ;* AR6   assigned to _setValue
    1456              $C$DW$111       .dwtag  DW_TAG_variable
    1457                      .dwattr $C$DW$111, DW_AT_name("setValue")
    1458                      .dwattr $C$DW$111, DW_AT_TI_symbol_name("_setValue")
    1459                      .dwattr $C$DW$111, DW_AT_type(*$C$DW$T$19)
    1460                      .dwattr $C$DW$111, DW_AT_location[DW_OP_reg16]
    1461              
    1462                      .dwcfi  cfa_offset, -2
    1463                      .dwcfi  save_reg_to_mem, 26, 0
    1464                      .dwpsn  file "C:/ti/motorware/motorware_1_01_00_17/sw/drivers/pie/src/32b/f28x/f2802x/pie.c",line 159
    1465 000000b5 5208          CMPB      AL,#8                 ; [CPU_] |159| 
    1466                      .dwpsn  file "C:/ti/motorware/motorware_1_01_00_17/sw/drivers/pie/src/32b/f28x/f2802x/pie.c",line 153
    1467 000000b6 2DA9          MOV       T,AL                  ; [CPU_] |153| 
    1468                      .dwpsn  file "C:/ti/motorware/motorware_1_01_00_17/sw/drivers/pie/src/32b/f28x/f2802x/pie.c",line 159
    1469 000000b7 680E          B         $C$L8,LO              ; [CPU_] |159| 
    1470                      ; branchcc occurs ; [] |159| 
    1471                      .dwpsn  file "C:/ti/motorware/motorware_1_01_00_17/sw/drivers/pie/src/32b/f28x/f2802x/pie.c",line 164
    1472 000000b8 5208          CMPB      AL,#8                 ; [CPU_] |164| 
    1473 000000b9 610A          B         $C$L7,EQ              ; [CPU_] |164| 
    1474                      ; branchcc occurs ; [] |164| 
    1475                      .dwpsn  file "C:/ti/motorware/motorware_1_01_00_17/sw/drivers/pie/src/32b/f28x/f2802x/pie.c",line 172
    1476 000000ba CCAC          AND       AL,T,#0x0007          ; [CPU_] |172| 
         000000bb 0007 
    1477 000000bc 9CFF          ADDB      AL,#-1                ; [CPU_] |172| 
    1478 000000bd 2DA9          MOV       T,AL                  ; [CPU_] |172| 
    1479 000000be 9A01          MOVB      AL,#1                 ; [CPU_] |172| 
    1480 000000bf FF66          LSL       AL,T                  ; [CPU_] |172| 
    1481 000000c0 88A9          MOVZ      AR6,AL                ; [CPU_] |172| 
    1482 000000c1       $C$L6:    
    1483                      .dwpsn  file "C:/ti/motorware/motorware_1_01_00_17/sw/drivers/pie/src/32b/f28x/f2802x/pie.c",line 171
    1484 000000c1 9A00          MOVB      AL,#0                 ; [CPU_] |171| 
    1485                      .dwpsn  file "C:/ti/motorware/motorware_1_01_00_17/sw/drivers/pie/src/32b/f28x/f2802x/pie.c",line 172
    1486 000000c2 6F07          B         $C$L9,UNC             ; [CPU_] |172| 
    1487                      ; branch occurs ; [] |172| 
    1488 000000c3       $C$L7:    
    1489                      .dwpsn  file "C:/ti/motorware/motorware_1_01_00_17/sw/drivers/pie/src/32b/f28x/f2802x/pie.c",line 167
    1490 000000c3 BE20          MOVB      XAR6,#32              ; [CPU_] |167| 
    1491                      .dwpsn  file "C:/ti/motorware/motorware_1_01_00_17/sw/drivers/pie/src/32b/f28x/f2802x/pie.c",line 168
    1492 000000c4 6FFD          B         $C$L6,UNC             ; [CPU_] |168| 
    1493                      ; branch occurs ; [] |168| 
    1494 000000c5       $C$L8:    
    1495                      .dwpsn  file "C:/ti/motorware/motorware_1_01_00_17/sw/drivers/pie/src/32b/f28x/f2802x/pie.c",line 162
    1496 000000c5 9A01          MOVB      AL,#1                 ; [CPU_] |162| 
    1497 000000c6 FF66          LSL       AL,T                  ; [CPU_] |162| 
    1498 000000c7 88A9          MOVZ      AR6,AL                ; [CPU_] |162| 
    1499                      .dwpsn  file "C:/ti/motorware/motorware_1_01_00_17/sw/drivers/pie/src/32b/f28x/f2802x/pie.c",line 161
    1500 000000c8 9A09          MOVB      AL,#9                 ; [CPU_] |161| 
    1501 000000c9       $C$L9:    
    1502 000000c9 2901          CLRC      SXM                   ; [CPU_] 
    1503                      .dwpsn  file "C:/ti/motorware/motorware_1_01_00_17/sw/drivers/pie/src/32b/f28x/f2802x/pie.c",line 176
    1504 000000ca 5603          MOV       ACC,AL << 1           ; [CPU_] |176| 
         000000cb 01A9 
    1505 000000cc 5601          ADDL      XAR4,ACC              ; [CPU_] |176| 
TMS320C2000 Assembler PC v16.9.1 Wed Jan 04 15:50:42 2017

Tools Copyright (c) 1996-2015 Texas Instruments Incorporated
C:\Users\ROSSYE~1\AppData\Local\Temp\0152010                         PAGE   29

         000000cd 00A4 
    1506 000000ce 92A6          MOV       AL,AR6                ; [CPU_] |176| 
    1507 000000cf 98D4          OR        *+XAR4[2],AL          ; [CPU_] |176| 
    1508              $C$DW$112       .dwtag  DW_TAG_TI_branch
    1509                      .dwattr $C$DW$112, DW_AT_low_pc(0x00)
    1510                      .dwattr $C$DW$112, DW_AT_TI_return
    1511              
    1512 000000d0 0006          LRETR     ; [CPU_] 
    1513                      ; return occurs ; [] 
    1514                      .dwattr $C$DW$106, DW_AT_TI_end_file("C:/ti/motorware/motorware_1_01_00_17/sw/drivers/pie/src/32b/f28
    1515                      .dwattr $C$DW$106, DW_AT_TI_end_line(0xb3)
    1516                      .dwattr $C$DW$106, DW_AT_TI_end_column(0x01)
    1517                      .dwendentry
    1518                      .dwendtag $C$DW$106
    1519              
    1520 000000d1               .sect   ".text"
    1521                      .clink
    1522                      .global _PIE_enable
    1523              
    1524              $C$DW$113       .dwtag  DW_TAG_subprogram
    1525                      .dwattr $C$DW$113, DW_AT_name("PIE_enable")
    1526                      .dwattr $C$DW$113, DW_AT_low_pc(_PIE_enable)
    1527                      .dwattr $C$DW$113, DW_AT_high_pc(0x00)
    1528                      .dwattr $C$DW$113, DW_AT_TI_symbol_name("_PIE_enable")
    1529                      .dwattr $C$DW$113, DW_AT_external
    1530                      .dwattr $C$DW$113, DW_AT_TI_begin_file("C:/ti/motorware/motorware_1_01_00_17/sw/drivers/pie/src/32b/f
    1531                      .dwattr $C$DW$113, DW_AT_TI_begin_line(0x8c)
    1532                      .dwattr $C$DW$113, DW_AT_TI_begin_column(0x06)
    1533                      .dwattr $C$DW$113, DW_AT_TI_max_frame_size(-2)
    1534                      .dwpsn  file "C:/ti/motorware/motorware_1_01_00_17/sw/drivers/pie/src/32b/f28x/f2802x/pie.c",line 141
    1535              
    1536                      .dwfde $C$DW$CIE, _PIE_enable
    1537              $C$DW$114       .dwtag  DW_TAG_formal_parameter
    1538                      .dwattr $C$DW$114, DW_AT_name("pieHandle")
    1539                      .dwattr $C$DW$114, DW_AT_TI_symbol_name("_pieHandle")
    1540                      .dwattr $C$DW$114, DW_AT_type(*$C$DW$T$62)
    1541                      .dwattr $C$DW$114, DW_AT_location[DW_OP_reg12]
    1542              
    1543              
    1544              ;***************************************************************
    1545              ;* FNAME: _PIE_enable                   FR SIZE:   0           *
    1546              ;*                                                             *
    1547              ;* FUNCTION ENVIRONMENT                                        *
    1548              ;*                                                             *
    1549              ;* FUNCTION PROPERTIES                                         *
    1550              ;*                            0 Parameter,  0 Auto,  0 SOE     *
    1551              ;***************************************************************
    1552              
    1553              _PIE_enable:
    1554              ;* AR4   assigned to _pieHandle
    1555              $C$DW$115       .dwtag  DW_TAG_variable
    1556                      .dwattr $C$DW$115, DW_AT_name("pieHandle")
    1557                      .dwattr $C$DW$115, DW_AT_TI_symbol_name("_pieHandle")
    1558                      .dwattr $C$DW$115, DW_AT_type(*$C$DW$T$63)
    1559                      .dwattr $C$DW$115, DW_AT_location[DW_OP_reg12]
TMS320C2000 Assembler PC v16.9.1 Wed Jan 04 15:50:42 2017

Tools Copyright (c) 1996-2015 Texas Instruments Incorporated
C:\Users\ROSSYE~1\AppData\Local\Temp\0152010                         PAGE   30

    1560              
    1561                      .dwcfi  cfa_offset, -2
    1562                      .dwcfi  save_reg_to_mem, 26, 0
    1563                      .dwpsn  file "C:/ti/motorware/motorware_1_01_00_17/sw/drivers/pie/src/32b/f28x/f2802x/pie.c",line 146
    1564 000000d1 1AC4          OR        *+XAR4[0],#0x0001     ; [CPU_] |146| 
         000000d2 0001 
    1565              $C$DW$116       .dwtag  DW_TAG_TI_branch
    1566                      .dwattr $C$DW$116, DW_AT_low_pc(0x00)
    1567                      .dwattr $C$DW$116, DW_AT_TI_return
    1568              
    1569 000000d3 0006          LRETR     ; [CPU_] 
    1570                      ; return occurs ; [] 
    1571                      .dwattr $C$DW$113, DW_AT_TI_end_file("C:/ti/motorware/motorware_1_01_00_17/sw/drivers/pie/src/32b/f28
    1572                      .dwattr $C$DW$113, DW_AT_TI_end_line(0x95)
    1573                      .dwattr $C$DW$113, DW_AT_TI_end_column(0x01)
    1574                      .dwendentry
    1575                      .dwendtag $C$DW$113
    1576              
    1577 000000d4               .sect   ".text"
    1578                      .clink
    1579                      .global _PIE_disableInt
    1580              
    1581              $C$DW$117       .dwtag  DW_TAG_subprogram
    1582                      .dwattr $C$DW$117, DW_AT_name("PIE_disableInt")
    1583                      .dwattr $C$DW$117, DW_AT_low_pc(_PIE_disableInt)
    1584                      .dwattr $C$DW$117, DW_AT_high_pc(0x00)
    1585                      .dwattr $C$DW$117, DW_AT_TI_symbol_name("_PIE_disableInt")
    1586                      .dwattr $C$DW$117, DW_AT_external
    1587                      .dwattr $C$DW$117, DW_AT_TI_begin_file("C:/ti/motorware/motorware_1_01_00_17/sw/drivers/pie/src/32b/f
    1588                      .dwattr $C$DW$117, DW_AT_TI_begin_line(0x82)
    1589                      .dwattr $C$DW$117, DW_AT_TI_begin_column(0x06)
    1590                      .dwattr $C$DW$117, DW_AT_TI_max_frame_size(-2)
    1591                      .dwpsn  file "C:/ti/motorware/motorware_1_01_00_17/sw/drivers/pie/src/32b/f28x/f2802x/pie.c",line 131
    1592              
    1593                      .dwfde $C$DW$CIE, _PIE_disableInt
    1594              $C$DW$118       .dwtag  DW_TAG_formal_parameter
    1595                      .dwattr $C$DW$118, DW_AT_name("pieHandle")
    1596                      .dwattr $C$DW$118, DW_AT_TI_symbol_name("_pieHandle")
    1597                      .dwattr $C$DW$118, DW_AT_type(*$C$DW$T$62)
    1598                      .dwattr $C$DW$118, DW_AT_location[DW_OP_reg12]
    1599              
    1600              $C$DW$119       .dwtag  DW_TAG_formal_parameter
    1601                      .dwattr $C$DW$119, DW_AT_name("group")
    1602                      .dwattr $C$DW$119, DW_AT_TI_symbol_name("_group")
    1603                      .dwattr $C$DW$119, DW_AT_type(*$C$DW$T$38)
    1604                      .dwattr $C$DW$119, DW_AT_location[DW_OP_reg0]
    1605              
    1606              $C$DW$120       .dwtag  DW_TAG_formal_parameter
    1607                      .dwattr $C$DW$120, DW_AT_name("intSource")
    1608                      .dwattr $C$DW$120, DW_AT_TI_symbol_name("_intSource")
    1609                      .dwattr $C$DW$120, DW_AT_type(*$C$DW$T$41)
    1610                      .dwattr $C$DW$120, DW_AT_location[DW_OP_reg1]
    1611              
    1612              
    1613              ;***************************************************************
TMS320C2000 Assembler PC v16.9.1 Wed Jan 04 15:50:42 2017

Tools Copyright (c) 1996-2015 Texas Instruments Incorporated
C:\Users\ROSSYE~1\AppData\Local\Temp\0152010                         PAGE   31

    1614              ;* FNAME: _PIE_disableInt               FR SIZE:   0           *
    1615              ;*                                                             *
    1616              ;* FUNCTION ENVIRONMENT                                        *
    1617              ;*                                                             *
    1618              ;* FUNCTION PROPERTIES                                         *
    1619              ;*                            0 Parameter,  0 Auto,  0 SOE     *
    1620              ;***************************************************************
    1621              
    1622              _PIE_disableInt:
    1623              ;* AR4   assigned to _pieHandle
    1624              $C$DW$121       .dwtag  DW_TAG_variable
    1625                      .dwattr $C$DW$121, DW_AT_name("pieHandle")
    1626                      .dwattr $C$DW$121, DW_AT_TI_symbol_name("_pieHandle")
    1627                      .dwattr $C$DW$121, DW_AT_type(*$C$DW$T$63)
    1628                      .dwattr $C$DW$121, DW_AT_location[DW_OP_reg12]
    1629              
    1630              ;* AR6   assigned to _intSource
    1631              $C$DW$122       .dwtag  DW_TAG_variable
    1632                      .dwattr $C$DW$122, DW_AT_name("intSource")
    1633                      .dwattr $C$DW$122, DW_AT_TI_symbol_name("_intSource")
    1634                      .dwattr $C$DW$122, DW_AT_type(*$C$DW$T$42)
    1635                      .dwattr $C$DW$122, DW_AT_location[DW_OP_reg16]
    1636              
    1637                      .dwcfi  cfa_offset, -2
    1638                      .dwcfi  save_reg_to_mem, 26, 0
    1639 000000d4 88A8          MOVZ      AR6,AH                ; [CPU_] |131| 
    1640 000000d5 2901          CLRC      SXM                   ; [CPU_] 
    1641                      .dwpsn  file "C:/ti/motorware/motorware_1_01_00_17/sw/drivers/pie/src/32b/f28x/f2802x/pie.c",line 134
    1642 000000d6 5603          MOV       ACC,AL << 1           ; [CPU_] |134| 
         000000d7 01A9 
    1643 000000d8 5601          ADDL      XAR4,ACC              ; [CPU_] |134| 
         000000d9 00A4 
    1644 000000da 92A6          MOV       AL,AR6                ; [CPU_] |134| 
    1645 000000db FF5E          NOT       AL                    ; [CPU_] |134| 
    1646 000000dc C0D4          AND       *+XAR4[2],AL          ; [CPU_] |134| 
    1647              $C$DW$123       .dwtag  DW_TAG_TI_branch
    1648                      .dwattr $C$DW$123, DW_AT_low_pc(0x00)
    1649                      .dwattr $C$DW$123, DW_AT_TI_return
    1650              
    1651 000000dd 0006          LRETR     ; [CPU_] 
    1652                      ; return occurs ; [] 
    1653                      .dwattr $C$DW$117, DW_AT_TI_end_file("C:/ti/motorware/motorware_1_01_00_17/sw/drivers/pie/src/32b/f28
    1654                      .dwattr $C$DW$117, DW_AT_TI_end_line(0x89)
    1655                      .dwattr $C$DW$117, DW_AT_TI_end_column(0x01)
    1656                      .dwendentry
    1657                      .dwendtag $C$DW$117
    1658              
    1659 000000de               .sect   ".text"
    1660                      .clink
    1661                      .global _PIE_disableExtInt
    1662              
    1663              $C$DW$124       .dwtag  DW_TAG_subprogram
    1664                      .dwattr $C$DW$124, DW_AT_name("PIE_disableExtInt")
    1665                      .dwattr $C$DW$124, DW_AT_low_pc(_PIE_disableExtInt)
    1666                      .dwattr $C$DW$124, DW_AT_high_pc(0x00)
TMS320C2000 Assembler PC v16.9.1 Wed Jan 04 15:50:42 2017

Tools Copyright (c) 1996-2015 Texas Instruments Incorporated
C:\Users\ROSSYE~1\AppData\Local\Temp\0152010                         PAGE   32

    1667                      .dwattr $C$DW$124, DW_AT_TI_symbol_name("_PIE_disableExtInt")
    1668                      .dwattr $C$DW$124, DW_AT_external
    1669                      .dwattr $C$DW$124, DW_AT_TI_begin_file("C:/ti/motorware/motorware_1_01_00_17/sw/drivers/pie/src/32b/f
    1670                      .dwattr $C$DW$124, DW_AT_TI_begin_line(0x68)
    1671                      .dwattr $C$DW$124, DW_AT_TI_begin_column(0x06)
    1672                      .dwattr $C$DW$124, DW_AT_TI_max_frame_size(-2)
    1673                      .dwpsn  file "C:/ti/motorware/motorware_1_01_00_17/sw/drivers/pie/src/32b/f28x/f2802x/pie.c",line 105
    1674              
    1675                      .dwfde $C$DW$CIE, _PIE_disableExtInt
    1676              $C$DW$125       .dwtag  DW_TAG_formal_parameter
    1677                      .dwattr $C$DW$125, DW_AT_name("pieHandle")
    1678                      .dwattr $C$DW$125, DW_AT_TI_symbol_name("_pieHandle")
    1679                      .dwattr $C$DW$125, DW_AT_type(*$C$DW$T$62)
    1680                      .dwattr $C$DW$125, DW_AT_location[DW_OP_reg12]
    1681              
    1682              $C$DW$126       .dwtag  DW_TAG_formal_parameter
    1683                      .dwattr $C$DW$126, DW_AT_name("intNumber")
    1684                      .dwattr $C$DW$126, DW_AT_TI_symbol_name("_intNumber")
    1685                      .dwattr $C$DW$126, DW_AT_type(*$C$DW$T$35)
    1686                      .dwattr $C$DW$126, DW_AT_location[DW_OP_reg0]
    1687              
    1688              
    1689              ;***************************************************************
    1690              ;* FNAME: _PIE_disableExtInt            FR SIZE:   0           *
    1691              ;*                                                             *
    1692              ;* FUNCTION ENVIRONMENT                                        *
    1693              ;*                                                             *
    1694              ;* FUNCTION PROPERTIES                                         *
    1695              ;*                            0 Parameter,  0 Auto,  0 SOE     *
    1696              ;***************************************************************
    1697              
    1698              _PIE_disableExtInt:
    1699              ;* AR4   assigned to _pieHandle
    1700              $C$DW$127       .dwtag  DW_TAG_variable
    1701                      .dwattr $C$DW$127, DW_AT_name("pieHandle")
    1702                      .dwattr $C$DW$127, DW_AT_TI_symbol_name("_pieHandle")
    1703                      .dwattr $C$DW$127, DW_AT_type(*$C$DW$T$63)
    1704                      .dwattr $C$DW$127, DW_AT_location[DW_OP_reg12]
    1705              
    1706              ;* AR6   assigned to _intNumber
    1707              $C$DW$128       .dwtag  DW_TAG_variable
    1708                      .dwattr $C$DW$128, DW_AT_name("intNumber")
    1709                      .dwattr $C$DW$128, DW_AT_TI_symbol_name("_intNumber")
    1710                      .dwattr $C$DW$128, DW_AT_type(*$C$DW$T$36)
    1711                      .dwattr $C$DW$128, DW_AT_location[DW_OP_reg16]
    1712              
    1713                      .dwcfi  cfa_offset, -2
    1714                      .dwcfi  save_reg_to_mem, 26, 0
    1715 000000de 88A9          MOVZ      AR6,AL                ; [CPU_] |105| 
    1716                      .dwpsn  file "C:/ti/motorware/motorware_1_01_00_17/sw/drivers/pie/src/32b/f28x/f2802x/pie.c",line 110
    1717 000000df A8A9          MOVL      ACC,XAR4              ; [CPU_] |110| 
    1718 000000e0 0DA6          ADDU      ACC,AR6               ; [CPU_] |110| 
    1719 000000e1 FF14          ADD       ACC,#1593 << 4        ; [CPU_] |110| 
         000000e2 0639 
    1720 000000e3 8AA9          MOVL      XAR4,ACC              ; [CPU_] |110| 
TMS320C2000 Assembler PC v16.9.1 Wed Jan 04 15:50:42 2017

Tools Copyright (c) 1996-2015 Texas Instruments Incorporated
C:\Users\ROSSYE~1\AppData\Local\Temp\0152010                         PAGE   33

    1721 000000e4 18C4          AND       *+XAR4[0],#0xfffe     ; [CPU_] |110| 
         000000e5 FFFE 
    1722              $C$DW$129       .dwtag  DW_TAG_TI_branch
    1723                      .dwattr $C$DW$129, DW_AT_low_pc(0x00)
    1724                      .dwattr $C$DW$129, DW_AT_TI_return
    1725              
    1726 000000e6 0006          LRETR     ; [CPU_] 
    1727                      ; return occurs ; [] 
    1728                      .dwattr $C$DW$124, DW_AT_TI_end_file("C:/ti/motorware/motorware_1_01_00_17/sw/drivers/pie/src/32b/f28
    1729                      .dwattr $C$DW$124, DW_AT_TI_end_line(0x71)
    1730                      .dwattr $C$DW$124, DW_AT_TI_end_column(0x01)
    1731                      .dwendentry
    1732                      .dwendtag $C$DW$124
    1733              
    1734 000000e7               .sect   ".text"
    1735                      .clink
    1736                      .global _PIE_disableCaptureInt
    1737              
    1738              $C$DW$130       .dwtag  DW_TAG_subprogram
    1739                      .dwattr $C$DW$130, DW_AT_name("PIE_disableCaptureInt")
    1740                      .dwattr $C$DW$130, DW_AT_low_pc(_PIE_disableCaptureInt)
    1741                      .dwattr $C$DW$130, DW_AT_high_pc(0x00)
    1742                      .dwattr $C$DW$130, DW_AT_TI_symbol_name("_PIE_disableCaptureInt")
    1743                      .dwattr $C$DW$130, DW_AT_external
    1744                      .dwattr $C$DW$130, DW_AT_TI_begin_file("C:/ti/motorware/motorware_1_01_00_17/sw/drivers/pie/src/32b/f
    1745                      .dwattr $C$DW$130, DW_AT_TI_begin_line(0x5d)
    1746                      .dwattr $C$DW$130, DW_AT_TI_begin_column(0x06)
    1747                      .dwattr $C$DW$130, DW_AT_TI_max_frame_size(-2)
    1748                      .dwpsn  file "C:/ti/motorware/motorware_1_01_00_17/sw/drivers/pie/src/32b/f28x/f2802x/pie.c",line 94,
    1749              
    1750                      .dwfde $C$DW$CIE, _PIE_disableCaptureInt
    1751              $C$DW$131       .dwtag  DW_TAG_formal_parameter
    1752                      .dwattr $C$DW$131, DW_AT_name("pieHandle")
    1753                      .dwattr $C$DW$131, DW_AT_TI_symbol_name("_pieHandle")
    1754                      .dwattr $C$DW$131, DW_AT_type(*$C$DW$T$62)
    1755                      .dwattr $C$DW$131, DW_AT_location[DW_OP_reg12]
    1756              
    1757              
    1758              ;***************************************************************
    1759              ;* FNAME: _PIE_disableCaptureInt        FR SIZE:   0           *
    1760              ;*                                                             *
    1761              ;* FUNCTION ENVIRONMENT                                        *
    1762              ;*                                                             *
    1763              ;* FUNCTION PROPERTIES                                         *
    1764              ;*                            0 Parameter,  0 Auto,  0 SOE     *
    1765              ;***************************************************************
    1766              
    1767 000000e7       _PIE_disableCaptureInt:
    1768                      .dwcfi  cfa_offset, -2
    1769                      .dwcfi  save_reg_to_mem, 26, 0
    1770                      .dwpsn  file "C:/ti/motorware/motorware_1_01_00_17/sw/drivers/pie/src/32b/f28x/f2802x/pie.c",line 98,
    1771 000000e7 DC08          ADDB      XAR4,#8               ; [CPU_] |98| 
    1772 000000e8 18C4          AND       *+XAR4[0],#0xfffe     ; [CPU_] |98| 
         000000e9 FFFE 
    1773              $C$DW$132       .dwtag  DW_TAG_TI_branch
TMS320C2000 Assembler PC v16.9.1 Wed Jan 04 15:50:42 2017

Tools Copyright (c) 1996-2015 Texas Instruments Incorporated
C:\Users\ROSSYE~1\AppData\Local\Temp\0152010                         PAGE   34

    1774                      .dwattr $C$DW$132, DW_AT_low_pc(0x00)
    1775                      .dwattr $C$DW$132, DW_AT_TI_return
    1776              
    1777 000000ea 0006          LRETR     ; [CPU_] 
    1778                      ; return occurs ; [] 
    1779                      .dwattr $C$DW$130, DW_AT_TI_end_file("C:/ti/motorware/motorware_1_01_00_17/sw/drivers/pie/src/32b/f28
    1780                      .dwattr $C$DW$130, DW_AT_TI_end_line(0x65)
    1781                      .dwattr $C$DW$130, DW_AT_TI_end_column(0x01)
    1782                      .dwendentry
    1783                      .dwendtag $C$DW$130
    1784              
    1785 000000eb               .sect   ".text"
    1786                      .clink
    1787                      .global _PIE_disableAllInts
    1788              
    1789              $C$DW$133       .dwtag  DW_TAG_subprogram
    1790                      .dwattr $C$DW$133, DW_AT_name("PIE_disableAllInts")
    1791                      .dwattr $C$DW$133, DW_AT_low_pc(_PIE_disableAllInts)
    1792                      .dwattr $C$DW$133, DW_AT_high_pc(0x00)
    1793                      .dwattr $C$DW$133, DW_AT_TI_symbol_name("_PIE_disableAllInts")
    1794                      .dwattr $C$DW$133, DW_AT_external
    1795                      .dwattr $C$DW$133, DW_AT_TI_begin_file("C:/ti/motorware/motorware_1_01_00_17/sw/drivers/pie/src/32b/f
    1796                      .dwattr $C$DW$133, DW_AT_TI_begin_line(0x74)
    1797                      .dwattr $C$DW$133, DW_AT_TI_begin_column(0x06)
    1798                      .dwattr $C$DW$133, DW_AT_TI_max_frame_size(-2)
    1799                      .dwpsn  file "C:/ti/motorware/motorware_1_01_00_17/sw/drivers/pie/src/32b/f28x/f2802x/pie.c",line 117
    1800              
    1801                      .dwfde $C$DW$CIE, _PIE_disableAllInts
    1802              $C$DW$134       .dwtag  DW_TAG_formal_parameter
    1803                      .dwattr $C$DW$134, DW_AT_name("pieHandle")
    1804                      .dwattr $C$DW$134, DW_AT_TI_symbol_name("_pieHandle")
    1805                      .dwattr $C$DW$134, DW_AT_type(*$C$DW$T$62)
    1806                      .dwattr $C$DW$134, DW_AT_location[DW_OP_reg12]
    1807              
    1808              
    1809              ;***************************************************************
    1810              ;* FNAME: _PIE_disableAllInts           FR SIZE:   0           *
    1811              ;*                                                             *
    1812              ;* FUNCTION ENVIRONMENT                                        *
    1813              ;*                                                             *
    1814              ;* FUNCTION PROPERTIES                                         *
    1815              ;*                            0 Parameter,  0 Auto,  0 SOE     *
    1816              ;***************************************************************
    1817              
    1818 000000eb       _PIE_disableAllInts:
    1819              ;* AR4   assigned to $O$U7
    1820                      .dwcfi  cfa_offset, -2
    1821                      .dwcfi  save_reg_to_mem, 26, 0
    1822 000000eb DC02          ADDB      XAR4,#2               ; [CPU_] 
    1823 000000ec BE0B          MOVB      XAR6,#11              ; [CPU_] 
    1824 000000ed       $C$L10:    
    1825                      .dwpsn  file "C:/ti/motorware/motorware_1_01_00_17/sw/drivers/pie/src/32b/f28x/f2802x/pie.c",line 124
    1826 000000ed 2BC4          MOV       *+XAR4[0],#0          ; [CPU_] |124| 
    1827                      .dwpsn  file "C:/ti/motorware/motorware_1_01_00_17/sw/drivers/pie/src/32b/f28x/f2802x/pie.c",line 122
    1828 000000ee DC02          ADDB      XAR4,#2               ; [CPU_] |122| 
TMS320C2000 Assembler PC v16.9.1 Wed Jan 04 15:50:42 2017

Tools Copyright (c) 1996-2015 Texas Instruments Incorporated
C:\Users\ROSSYE~1\AppData\Local\Temp\0152010                         PAGE   35

    1829 000000ef 000E          BANZ      $C$L10,AR6--          ; [CPU_] |122| 
         000000f0 FFFE 
    1830                      ; branchcc occurs ; [] |122| 
    1831              $C$DW$135       .dwtag  DW_TAG_TI_branch
    1832                      .dwattr $C$DW$135, DW_AT_low_pc(0x00)
    1833                      .dwattr $C$DW$135, DW_AT_TI_return
    1834              
    1835 000000f1 0006          LRETR     ; [CPU_] 
    1836                      ; return occurs ; [] 
    1837                      .dwattr $C$DW$133, DW_AT_TI_end_file("C:/ti/motorware/motorware_1_01_00_17/sw/drivers/pie/src/32b/f28
    1838                      .dwattr $C$DW$133, DW_AT_TI_end_line(0x80)
    1839                      .dwattr $C$DW$133, DW_AT_TI_end_column(0x01)
    1840                      .dwendentry
    1841                      .dwendtag $C$DW$133
    1842              
    1843 000000f2               .sect   ".text"
    1844                      .clink
    1845                      .global _PIE_disable
    1846              
    1847              $C$DW$136       .dwtag  DW_TAG_subprogram
    1848                      .dwattr $C$DW$136, DW_AT_name("PIE_disable")
    1849                      .dwattr $C$DW$136, DW_AT_low_pc(_PIE_disable)
    1850                      .dwattr $C$DW$136, DW_AT_high_pc(0x00)
    1851                      .dwattr $C$DW$136, DW_AT_TI_symbol_name("_PIE_disable")
    1852                      .dwattr $C$DW$136, DW_AT_external
    1853                      .dwattr $C$DW$136, DW_AT_TI_begin_file("C:/ti/motorware/motorware_1_01_00_17/sw/drivers/pie/src/32b/f
    1854                      .dwattr $C$DW$136, DW_AT_TI_begin_line(0x52)
    1855                      .dwattr $C$DW$136, DW_AT_TI_begin_column(0x06)
    1856                      .dwattr $C$DW$136, DW_AT_TI_max_frame_size(-2)
    1857                      .dwpsn  file "C:/ti/motorware/motorware_1_01_00_17/sw/drivers/pie/src/32b/f28x/f2802x/pie.c",line 83,
    1858              
    1859                      .dwfde $C$DW$CIE, _PIE_disable
    1860              $C$DW$137       .dwtag  DW_TAG_formal_parameter
    1861                      .dwattr $C$DW$137, DW_AT_name("pieHandle")
    1862                      .dwattr $C$DW$137, DW_AT_TI_symbol_name("_pieHandle")
    1863                      .dwattr $C$DW$137, DW_AT_type(*$C$DW$T$62)
    1864                      .dwattr $C$DW$137, DW_AT_location[DW_OP_reg12]
    1865              
    1866              
    1867              ;***************************************************************
    1868              ;* FNAME: _PIE_disable                  FR SIZE:   0           *
    1869              ;*                                                             *
    1870              ;* FUNCTION ENVIRONMENT                                        *
    1871              ;*                                                             *
    1872              ;* FUNCTION PROPERTIES                                         *
    1873              ;*                            0 Parameter,  0 Auto,  0 SOE     *
    1874              ;***************************************************************
    1875              
    1876              _PIE_disable:
    1877              ;* AR4   assigned to _pieHandle
    1878              $C$DW$138       .dwtag  DW_TAG_variable
    1879                      .dwattr $C$DW$138, DW_AT_name("pieHandle")
    1880                      .dwattr $C$DW$138, DW_AT_TI_symbol_name("_pieHandle")
    1881                      .dwattr $C$DW$138, DW_AT_type(*$C$DW$T$63)
    1882                      .dwattr $C$DW$138, DW_AT_location[DW_OP_reg12]
TMS320C2000 Assembler PC v16.9.1 Wed Jan 04 15:50:42 2017

Tools Copyright (c) 1996-2015 Texas Instruments Incorporated
C:\Users\ROSSYE~1\AppData\Local\Temp\0152010                         PAGE   36

    1883              
    1884                      .dwcfi  cfa_offset, -2
    1885                      .dwcfi  save_reg_to_mem, 26, 0
    1886                      .dwpsn  file "C:/ti/motorware/motorware_1_01_00_17/sw/drivers/pie/src/32b/f28x/f2802x/pie.c",line 88,
    1887 000000f2 18C4          AND       *+XAR4[0],#0xfffe     ; [CPU_] |88| 
         000000f3 FFFE 
    1888              $C$DW$139       .dwtag  DW_TAG_TI_branch
    1889                      .dwattr $C$DW$139, DW_AT_low_pc(0x00)
    1890                      .dwattr $C$DW$139, DW_AT_TI_return
    1891              
    1892 000000f4 0006          LRETR     ; [CPU_] 
    1893                      ; return occurs ; [] 
    1894                      .dwattr $C$DW$136, DW_AT_TI_end_file("C:/ti/motorware/motorware_1_01_00_17/sw/drivers/pie/src/32b/f28
    1895                      .dwattr $C$DW$136, DW_AT_TI_end_line(0x5b)
    1896                      .dwattr $C$DW$136, DW_AT_TI_end_column(0x01)
    1897                      .dwendentry
    1898                      .dwendtag $C$DW$136
    1899              
    1900 000000f5               .sect   ".text"
    1901                      .clink
    1902                      .global _PIE_clearAllInts
    1903              
    1904              $C$DW$140       .dwtag  DW_TAG_subprogram
    1905                      .dwattr $C$DW$140, DW_AT_name("PIE_clearAllInts")
    1906                      .dwattr $C$DW$140, DW_AT_low_pc(_PIE_clearAllInts)
    1907                      .dwattr $C$DW$140, DW_AT_high_pc(0x00)
    1908                      .dwattr $C$DW$140, DW_AT_TI_symbol_name("_PIE_clearAllInts")
    1909                      .dwattr $C$DW$140, DW_AT_external
    1910                      .dwattr $C$DW$140, DW_AT_TI_begin_file("C:/ti/motorware/motorware_1_01_00_17/sw/drivers/pie/src/32b/f
    1911                      .dwattr $C$DW$140, DW_AT_TI_begin_line(0x46)
    1912                      .dwattr $C$DW$140, DW_AT_TI_begin_column(0x06)
    1913                      .dwattr $C$DW$140, DW_AT_TI_max_frame_size(-2)
    1914                      .dwpsn  file "C:/ti/motorware/motorware_1_01_00_17/sw/drivers/pie/src/32b/f28x/f2802x/pie.c",line 71,
    1915              
    1916                      .dwfde $C$DW$CIE, _PIE_clearAllInts
    1917              $C$DW$141       .dwtag  DW_TAG_formal_parameter
    1918                      .dwattr $C$DW$141, DW_AT_name("pieHandle")
    1919                      .dwattr $C$DW$141, DW_AT_TI_symbol_name("_pieHandle")
    1920                      .dwattr $C$DW$141, DW_AT_type(*$C$DW$T$62)
    1921                      .dwattr $C$DW$141, DW_AT_location[DW_OP_reg12]
    1922              
    1923              
    1924              ;***************************************************************
    1925              ;* FNAME: _PIE_clearAllInts             FR SIZE:   0           *
    1926              ;*                                                             *
    1927              ;* FUNCTION ENVIRONMENT                                        *
    1928              ;*                                                             *
    1929              ;* FUNCTION PROPERTIES                                         *
    1930              ;*                            0 Parameter,  0 Auto,  0 SOE     *
    1931              ;***************************************************************
    1932              
    1933              _PIE_clearAllInts:
    1934              ;* AR4   assigned to _pieHandle
    1935              $C$DW$142       .dwtag  DW_TAG_variable
    1936                      .dwattr $C$DW$142, DW_AT_name("pieHandle")
TMS320C2000 Assembler PC v16.9.1 Wed Jan 04 15:50:42 2017

Tools Copyright (c) 1996-2015 Texas Instruments Incorporated
C:\Users\ROSSYE~1\AppData\Local\Temp\0152010                         PAGE   37

    1937                      .dwattr $C$DW$142, DW_AT_TI_symbol_name("_pieHandle")
    1938                      .dwattr $C$DW$142, DW_AT_type(*$C$DW$T$63)
    1939                      .dwattr $C$DW$142, DW_AT_location[DW_OP_reg12]
    1940              
    1941                      .dwcfi  cfa_offset, -2
    1942                      .dwcfi  save_reg_to_mem, 26, 0
    1943                      .dwpsn  file "C:/ti/motorware/motorware_1_01_00_17/sw/drivers/pie/src/32b/f28x/f2802x/pie.c",line 76,
    1944 000000f5 1ACC          OR        *+XAR4[1],#0xffff     ; [CPU_] |76| 
         000000f6 FFFF 
    1945              $C$DW$143       .dwtag  DW_TAG_TI_branch
    1946                      .dwattr $C$DW$143, DW_AT_low_pc(0x00)
    1947                      .dwattr $C$DW$143, DW_AT_TI_return
    1948              
    1949 000000f7 0006          LRETR     ; [CPU_] 
    1950                      ; return occurs ; [] 
    1951                      .dwattr $C$DW$140, DW_AT_TI_end_file("C:/ti/motorware/motorware_1_01_00_17/sw/drivers/pie/src/32b/f28
    1952                      .dwattr $C$DW$140, DW_AT_TI_end_line(0x4f)
    1953                      .dwattr $C$DW$140, DW_AT_TI_end_column(0x01)
    1954                      .dwendentry
    1955                      .dwendtag $C$DW$140
    1956              
    1957 000000f8               .sect   ".text"
    1958                      .clink
    1959                      .global _PIE_clearAllFlags
    1960              
    1961              $C$DW$144       .dwtag  DW_TAG_subprogram
    1962                      .dwattr $C$DW$144, DW_AT_name("PIE_clearAllFlags")
    1963                      .dwattr $C$DW$144, DW_AT_low_pc(_PIE_clearAllFlags)
    1964                      .dwattr $C$DW$144, DW_AT_high_pc(0x00)
    1965                      .dwattr $C$DW$144, DW_AT_TI_symbol_name("_PIE_clearAllFlags")
    1966                      .dwattr $C$DW$144, DW_AT_external
    1967                      .dwattr $C$DW$144, DW_AT_TI_begin_file("C:/ti/motorware/motorware_1_01_00_17/sw/drivers/pie/src/32b/f
    1968                      .dwattr $C$DW$144, DW_AT_TI_begin_line(0x37)
    1969                      .dwattr $C$DW$144, DW_AT_TI_begin_column(0x06)
    1970                      .dwattr $C$DW$144, DW_AT_TI_max_frame_size(-2)
    1971                      .dwpsn  file "C:/ti/motorware/motorware_1_01_00_17/sw/drivers/pie/src/32b/f28x/f2802x/pie.c",line 56,
    1972              
    1973                      .dwfde $C$DW$CIE, _PIE_clearAllFlags
    1974              $C$DW$145       .dwtag  DW_TAG_formal_parameter
    1975                      .dwattr $C$DW$145, DW_AT_name("pieHandle")
    1976                      .dwattr $C$DW$145, DW_AT_TI_symbol_name("_pieHandle")
    1977                      .dwattr $C$DW$145, DW_AT_type(*$C$DW$T$62)
    1978                      .dwattr $C$DW$145, DW_AT_location[DW_OP_reg12]
    1979              
    1980              
    1981              ;***************************************************************
    1982              ;* FNAME: _PIE_clearAllFlags            FR SIZE:   0           *
    1983              ;*                                                             *
    1984              ;* FUNCTION ENVIRONMENT                                        *
    1985              ;*                                                             *
    1986              ;* FUNCTION PROPERTIES                                         *
    1987              ;*                            0 Parameter,  0 Auto,  0 SOE     *
    1988              ;***************************************************************
    1989              
    1990 000000f8       _PIE_clearAllFlags:
TMS320C2000 Assembler PC v16.9.1 Wed Jan 04 15:50:42 2017

Tools Copyright (c) 1996-2015 Texas Instruments Incorporated
C:\Users\ROSSYE~1\AppData\Local\Temp\0152010                         PAGE   38

    1991              ;* AR4   assigned to $O$U7
    1992                      .dwcfi  cfa_offset, -2
    1993                      .dwcfi  save_reg_to_mem, 26, 0
    1994 000000f8 DC03          ADDB      XAR4,#3               ; [CPU_] 
    1995 000000f9 BE0B          MOVB      XAR6,#11              ; [CPU_] 
    1996 000000fa       $C$L11:    
    1997                      .dwpsn  file "C:/ti/motorware/motorware_1_01_00_17/sw/drivers/pie/src/32b/f28x/f2802x/pie.c",line 63,
    1998 000000fa 2BC4          MOV       *+XAR4[0],#0          ; [CPU_] |63| 
    1999                      .dwpsn  file "C:/ti/motorware/motorware_1_01_00_17/sw/drivers/pie/src/32b/f28x/f2802x/pie.c",line 61,
    2000 000000fb DC02          ADDB      XAR4,#2               ; [CPU_] |61| 
    2001 000000fc 000E          BANZ      $C$L11,AR6--          ; [CPU_] |61| 
         000000fd FFFE 
    2002                      ; branchcc occurs ; [] |61| 
    2003              $C$DW$146       .dwtag  DW_TAG_TI_branch
    2004                      .dwattr $C$DW$146, DW_AT_low_pc(0x00)
    2005                      .dwattr $C$DW$146, DW_AT_TI_return
    2006              
    2007 000000fe 0006          LRETR     ; [CPU_] 
    2008                      ; return occurs ; [] 
    2009                      .dwattr $C$DW$144, DW_AT_TI_end_file("C:/ti/motorware/motorware_1_01_00_17/sw/drivers/pie/src/32b/f28
    2010                      .dwattr $C$DW$144, DW_AT_TI_end_line(0x43)
    2011                      .dwattr $C$DW$144, DW_AT_TI_end_column(0x01)
    2012                      .dwendentry
    2013                      .dwendtag $C$DW$144
    2014              
    2015              
    2016              ;***************************************************************
    2017              ;* TYPE INFORMATION                                            *
    2018              ;***************************************************************
    2019              
    2020              $C$DW$T$34      .dwtag  DW_TAG_enumeration_type
    2021                      .dwattr $C$DW$T$34, DW_AT_byte_size(0x01)
    2022              $C$DW$147       .dwtag  DW_TAG_enumerator
    2023                      .dwattr $C$DW$147, DW_AT_name("CPU_ExtIntNumber_1")
    2024                      .dwattr $C$DW$147, DW_AT_const_value(0x00)
    2025              
    2026              $C$DW$148       .dwtag  DW_TAG_enumerator
    2027                      .dwattr $C$DW$148, DW_AT_name("CPU_ExtIntNumber_2")
    2028                      .dwattr $C$DW$148, DW_AT_const_value(0x01)
    2029              
    2030              $C$DW$149       .dwtag  DW_TAG_enumerator
    2031                      .dwattr $C$DW$149, DW_AT_name("CPU_ExtIntNumber_3")
    2032                      .dwattr $C$DW$149, DW_AT_const_value(0x02)
    2033              
    2034                      .dwendtag $C$DW$T$34
    2035              
    2036              $C$DW$T$35      .dwtag  DW_TAG_typedef
    2037                      .dwattr $C$DW$T$35, DW_AT_name("CPU_ExtIntNumber_e")
    2038                      .dwattr $C$DW$T$35, DW_AT_type(*$C$DW$T$34)
    2039                      .dwattr $C$DW$T$35, DW_AT_language(DW_LANG_C)
    2040              
    2041              $C$DW$150       .dwtag  DW_TAG_TI_far_type
    2042                      .dwattr $C$DW$150, DW_AT_type(*$C$DW$T$35)
    2043              
    2044              $C$DW$T$36      .dwtag  DW_TAG_const_type
TMS320C2000 Assembler PC v16.9.1 Wed Jan 04 15:50:42 2017

Tools Copyright (c) 1996-2015 Texas Instruments Incorporated
C:\Users\ROSSYE~1\AppData\Local\Temp\0152010                         PAGE   39

    2045                      .dwattr $C$DW$T$36, DW_AT_type(*$C$DW$150)
    2046              
    2047              
    2048              $C$DW$T$37      .dwtag  DW_TAG_enumeration_type
    2049                      .dwattr $C$DW$T$37, DW_AT_byte_size(0x01)
    2050              $C$DW$151       .dwtag  DW_TAG_enumerator
    2051                      .dwattr $C$DW$151, DW_AT_name("PIE_GroupNumber_1")
    2052                      .dwattr $C$DW$151, DW_AT_const_value(0x00)
    2053              
    2054              $C$DW$152       .dwtag  DW_TAG_enumerator
    2055                      .dwattr $C$DW$152, DW_AT_name("PIE_GroupNumber_2")
    2056                      .dwattr $C$DW$152, DW_AT_const_value(0x01)
    2057              
    2058              $C$DW$153       .dwtag  DW_TAG_enumerator
    2059                      .dwattr $C$DW$153, DW_AT_name("PIE_GroupNumber_3")
    2060                      .dwattr $C$DW$153, DW_AT_const_value(0x02)
    2061              
    2062              $C$DW$154       .dwtag  DW_TAG_enumerator
    2063                      .dwattr $C$DW$154, DW_AT_name("PIE_GroupNumber_4")
    2064                      .dwattr $C$DW$154, DW_AT_const_value(0x03)
    2065              
    2066              $C$DW$155       .dwtag  DW_TAG_enumerator
    2067                      .dwattr $C$DW$155, DW_AT_name("PIE_GroupNumber_5")
    2068                      .dwattr $C$DW$155, DW_AT_const_value(0x04)
    2069              
    2070              $C$DW$156       .dwtag  DW_TAG_enumerator
    2071                      .dwattr $C$DW$156, DW_AT_name("PIE_GroupNumber_6")
    2072                      .dwattr $C$DW$156, DW_AT_const_value(0x05)
    2073              
    2074              $C$DW$157       .dwtag  DW_TAG_enumerator
    2075                      .dwattr $C$DW$157, DW_AT_name("PIE_GroupNumber_7")
    2076                      .dwattr $C$DW$157, DW_AT_const_value(0x06)
    2077              
    2078              $C$DW$158       .dwtag  DW_TAG_enumerator
    2079                      .dwattr $C$DW$158, DW_AT_name("PIE_GroupNumber_8")
    2080                      .dwattr $C$DW$158, DW_AT_const_value(0x07)
    2081              
    2082              $C$DW$159       .dwtag  DW_TAG_enumerator
    2083                      .dwattr $C$DW$159, DW_AT_name("PIE_GroupNumber_9")
    2084                      .dwattr $C$DW$159, DW_AT_const_value(0x08)
    2085              
    2086              $C$DW$160       .dwtag  DW_TAG_enumerator
    2087                      .dwattr $C$DW$160, DW_AT_name("PIE_GroupNumber_10")
    2088                      .dwattr $C$DW$160, DW_AT_const_value(0x09)
    2089              
    2090              $C$DW$161       .dwtag  DW_TAG_enumerator
    2091                      .dwattr $C$DW$161, DW_AT_name("PIE_GroupNumber_11")
    2092                      .dwattr $C$DW$161, DW_AT_const_value(0x0a)
    2093              
    2094              $C$DW$162       .dwtag  DW_TAG_enumerator
    2095                      .dwattr $C$DW$162, DW_AT_name("PIE_GroupNumber_12")
    2096                      .dwattr $C$DW$162, DW_AT_const_value(0x0b)
    2097              
    2098                      .dwendtag $C$DW$T$37
    2099              
TMS320C2000 Assembler PC v16.9.1 Wed Jan 04 15:50:42 2017

Tools Copyright (c) 1996-2015 Texas Instruments Incorporated
C:\Users\ROSSYE~1\AppData\Local\Temp\0152010                         PAGE   40

    2100              $C$DW$T$38      .dwtag  DW_TAG_typedef
    2101                      .dwattr $C$DW$T$38, DW_AT_name("PIE_GroupNumber_e")
    2102                      .dwattr $C$DW$T$38, DW_AT_type(*$C$DW$T$37)
    2103                      .dwattr $C$DW$T$38, DW_AT_language(DW_LANG_C)
    2104              
    2105              $C$DW$163       .dwtag  DW_TAG_TI_far_type
    2106                      .dwattr $C$DW$163, DW_AT_type(*$C$DW$T$38)
    2107              
    2108              $C$DW$T$39      .dwtag  DW_TAG_const_type
    2109                      .dwattr $C$DW$T$39, DW_AT_type(*$C$DW$163)
    2110              
    2111              
    2112              $C$DW$T$40      .dwtag  DW_TAG_enumeration_type
    2113                      .dwattr $C$DW$T$40, DW_AT_byte_size(0x01)
    2114              $C$DW$164       .dwtag  DW_TAG_enumerator
    2115                      .dwattr $C$DW$164, DW_AT_name("PIE_InterruptSource_ADCINT_1_1")
    2116                      .dwattr $C$DW$164, DW_AT_const_value(0x01)
    2117              
    2118              $C$DW$165       .dwtag  DW_TAG_enumerator
    2119                      .dwattr $C$DW$165, DW_AT_name("PIE_InterruptSource_ADCINT_1_2")
    2120                      .dwattr $C$DW$165, DW_AT_const_value(0x02)
    2121              
    2122              $C$DW$166       .dwtag  DW_TAG_enumerator
    2123                      .dwattr $C$DW$166, DW_AT_name("PIE_InterruptSource_XINT_1")
    2124                      .dwattr $C$DW$166, DW_AT_const_value(0x08)
    2125              
    2126              $C$DW$167       .dwtag  DW_TAG_enumerator
    2127                      .dwattr $C$DW$167, DW_AT_name("PIE_InterruptSource_XINT_2")
    2128                      .dwattr $C$DW$167, DW_AT_const_value(0x10)
    2129              
    2130              $C$DW$168       .dwtag  DW_TAG_enumerator
    2131                      .dwattr $C$DW$168, DW_AT_name("PIE_InterruptSource_ADCINT_9")
    2132                      .dwattr $C$DW$168, DW_AT_const_value(0x20)
    2133              
    2134              $C$DW$169       .dwtag  DW_TAG_enumerator
    2135                      .dwattr $C$DW$169, DW_AT_name("PIE_InterruptSource_TIMER_0")
    2136                      .dwattr $C$DW$169, DW_AT_const_value(0x40)
    2137              
    2138              $C$DW$170       .dwtag  DW_TAG_enumerator
    2139                      .dwattr $C$DW$170, DW_AT_name("PIE_InterruptSource_WAKE")
    2140                      .dwattr $C$DW$170, DW_AT_const_value(0x80)
    2141              
    2142              $C$DW$171       .dwtag  DW_TAG_enumerator
    2143                      .dwattr $C$DW$171, DW_AT_name("PIE_InterruptSource_TZ1")
    2144                      .dwattr $C$DW$171, DW_AT_const_value(0x01)
    2145              
    2146              $C$DW$172       .dwtag  DW_TAG_enumerator
    2147                      .dwattr $C$DW$172, DW_AT_name("PIE_InterruptSource_TZ2")
    2148                      .dwattr $C$DW$172, DW_AT_const_value(0x02)
    2149              
    2150              $C$DW$173       .dwtag  DW_TAG_enumerator
    2151                      .dwattr $C$DW$173, DW_AT_name("PIE_InterruptSource_TZ3")
    2152                      .dwattr $C$DW$173, DW_AT_const_value(0x04)
    2153              
    2154              $C$DW$174       .dwtag  DW_TAG_enumerator
TMS320C2000 Assembler PC v16.9.1 Wed Jan 04 15:50:42 2017

Tools Copyright (c) 1996-2015 Texas Instruments Incorporated
C:\Users\ROSSYE~1\AppData\Local\Temp\0152010                         PAGE   41

    2155                      .dwattr $C$DW$174, DW_AT_name("PIE_InterruptSource_TZ4")
    2156                      .dwattr $C$DW$174, DW_AT_const_value(0x08)
    2157              
    2158              $C$DW$175       .dwtag  DW_TAG_enumerator
    2159                      .dwattr $C$DW$175, DW_AT_name("PIE_InterruptSource_EPWM1")
    2160                      .dwattr $C$DW$175, DW_AT_const_value(0x01)
    2161              
    2162              $C$DW$176       .dwtag  DW_TAG_enumerator
    2163                      .dwattr $C$DW$176, DW_AT_name("PIE_InterruptSource_EPWM2")
    2164                      .dwattr $C$DW$176, DW_AT_const_value(0x02)
    2165              
    2166              $C$DW$177       .dwtag  DW_TAG_enumerator
    2167                      .dwattr $C$DW$177, DW_AT_name("PIE_InterruptSource_EPWM3")
    2168                      .dwattr $C$DW$177, DW_AT_const_value(0x04)
    2169              
    2170              $C$DW$178       .dwtag  DW_TAG_enumerator
    2171                      .dwattr $C$DW$178, DW_AT_name("PIE_InterruptSource_EPWM4")
    2172                      .dwattr $C$DW$178, DW_AT_const_value(0x08)
    2173              
    2174              $C$DW$179       .dwtag  DW_TAG_enumerator
    2175                      .dwattr $C$DW$179, DW_AT_name("PIE_InterruptSource_ECAP1")
    2176                      .dwattr $C$DW$179, DW_AT_const_value(0x01)
    2177              
    2178              $C$DW$180       .dwtag  DW_TAG_enumerator
    2179                      .dwattr $C$DW$180, DW_AT_name("PIE_InterruptSource_EQEP1")
    2180                      .dwattr $C$DW$180, DW_AT_const_value(0x01)
    2181              
    2182              $C$DW$181       .dwtag  DW_TAG_enumerator
    2183                      .dwattr $C$DW$181, DW_AT_name("PIE_InterruptSource_SPIARX")
    2184                      .dwattr $C$DW$181, DW_AT_const_value(0x01)
    2185              
    2186              $C$DW$182       .dwtag  DW_TAG_enumerator
    2187                      .dwattr $C$DW$182, DW_AT_name("PIE_InterruptSource_SPIATX")
    2188                      .dwattr $C$DW$182, DW_AT_const_value(0x02)
    2189              
    2190              $C$DW$183       .dwtag  DW_TAG_enumerator
    2191                      .dwattr $C$DW$183, DW_AT_name("PIE_InterruptSource_I2CA1")
    2192                      .dwattr $C$DW$183, DW_AT_const_value(0x01)
    2193              
    2194              $C$DW$184       .dwtag  DW_TAG_enumerator
    2195                      .dwattr $C$DW$184, DW_AT_name("PIE_InterruptSource_I2CA2")
    2196                      .dwattr $C$DW$184, DW_AT_const_value(0x02)
    2197              
    2198              $C$DW$185       .dwtag  DW_TAG_enumerator
    2199                      .dwattr $C$DW$185, DW_AT_name("PIE_InterruptSource_SCIARX")
    2200                      .dwattr $C$DW$185, DW_AT_const_value(0x01)
    2201              
    2202              $C$DW$186       .dwtag  DW_TAG_enumerator
    2203                      .dwattr $C$DW$186, DW_AT_name("PIE_InterruptSource_SCIATX")
    2204                      .dwattr $C$DW$186, DW_AT_const_value(0x02)
    2205              
    2206              $C$DW$187       .dwtag  DW_TAG_enumerator
    2207                      .dwattr $C$DW$187, DW_AT_name("PIE_InterruptSource_ADCINT_10_1")
    2208                      .dwattr $C$DW$187, DW_AT_const_value(0x01)
    2209              
TMS320C2000 Assembler PC v16.9.1 Wed Jan 04 15:50:42 2017

Tools Copyright (c) 1996-2015 Texas Instruments Incorporated
C:\Users\ROSSYE~1\AppData\Local\Temp\0152010                         PAGE   42

    2210              $C$DW$188       .dwtag  DW_TAG_enumerator
    2211                      .dwattr $C$DW$188, DW_AT_name("PIE_InterruptSource_ADCINT_10_2")
    2212                      .dwattr $C$DW$188, DW_AT_const_value(0x02)
    2213              
    2214              $C$DW$189       .dwtag  DW_TAG_enumerator
    2215                      .dwattr $C$DW$189, DW_AT_name("PIE_InterruptSource_ADCINT_3")
    2216                      .dwattr $C$DW$189, DW_AT_const_value(0x04)
    2217              
    2218              $C$DW$190       .dwtag  DW_TAG_enumerator
    2219                      .dwattr $C$DW$190, DW_AT_name("PIE_InterruptSource_ADCINT_4")
    2220                      .dwattr $C$DW$190, DW_AT_const_value(0x08)
    2221              
    2222              $C$DW$191       .dwtag  DW_TAG_enumerator
    2223                      .dwattr $C$DW$191, DW_AT_name("PIE_InterruptSource_ADCINT_5")
    2224                      .dwattr $C$DW$191, DW_AT_const_value(0x10)
    2225              
    2226              $C$DW$192       .dwtag  DW_TAG_enumerator
    2227                      .dwattr $C$DW$192, DW_AT_name("PIE_InterruptSource_ADCINT_6")
    2228                      .dwattr $C$DW$192, DW_AT_const_value(0x20)
    2229              
    2230              $C$DW$193       .dwtag  DW_TAG_enumerator
    2231                      .dwattr $C$DW$193, DW_AT_name("PIE_InterruptSource_ADCINT_7")
    2232                      .dwattr $C$DW$193, DW_AT_const_value(0x40)
    2233              
    2234              $C$DW$194       .dwtag  DW_TAG_enumerator
    2235                      .dwattr $C$DW$194, DW_AT_name("PIE_InterruptSource_ADCINT_8")
    2236                      .dwattr $C$DW$194, DW_AT_const_value(0x80)
    2237              
    2238              $C$DW$195       .dwtag  DW_TAG_enumerator
    2239                      .dwattr $C$DW$195, DW_AT_name("PIE_InterruptSource_XINT_3")
    2240                      .dwattr $C$DW$195, DW_AT_const_value(0x01)
    2241              
    2242                      .dwendtag $C$DW$T$40
    2243              
    2244              $C$DW$T$41      .dwtag  DW_TAG_typedef
    2245                      .dwattr $C$DW$T$41, DW_AT_name("PIE_InterruptSource_e")
    2246                      .dwattr $C$DW$T$41, DW_AT_type(*$C$DW$T$40)
    2247                      .dwattr $C$DW$T$41, DW_AT_language(DW_LANG_C)
    2248              
    2249              $C$DW$196       .dwtag  DW_TAG_TI_far_type
    2250                      .dwattr $C$DW$196, DW_AT_type(*$C$DW$T$41)
    2251              
    2252              $C$DW$T$42      .dwtag  DW_TAG_const_type
    2253                      .dwattr $C$DW$T$42, DW_AT_type(*$C$DW$196)
    2254              
    2255              
    2256              $C$DW$T$43      .dwtag  DW_TAG_enumeration_type
    2257                      .dwattr $C$DW$T$43, DW_AT_byte_size(0x01)
    2258              $C$DW$197       .dwtag  DW_TAG_enumerator
    2259                      .dwattr $C$DW$197, DW_AT_name("ADC_IntNumber_1")
    2260                      .dwattr $C$DW$197, DW_AT_const_value(0x00)
    2261              
    2262              $C$DW$198       .dwtag  DW_TAG_enumerator
    2263                      .dwattr $C$DW$198, DW_AT_name("ADC_IntNumber_2")
    2264                      .dwattr $C$DW$198, DW_AT_const_value(0x01)
TMS320C2000 Assembler PC v16.9.1 Wed Jan 04 15:50:42 2017

Tools Copyright (c) 1996-2015 Texas Instruments Incorporated
C:\Users\ROSSYE~1\AppData\Local\Temp\0152010                         PAGE   43

    2265              
    2266              $C$DW$199       .dwtag  DW_TAG_enumerator
    2267                      .dwattr $C$DW$199, DW_AT_name("ADC_IntNumber_3")
    2268                      .dwattr $C$DW$199, DW_AT_const_value(0x02)
    2269              
    2270              $C$DW$200       .dwtag  DW_TAG_enumerator
    2271                      .dwattr $C$DW$200, DW_AT_name("ADC_IntNumber_4")
    2272                      .dwattr $C$DW$200, DW_AT_const_value(0x03)
    2273              
    2274              $C$DW$201       .dwtag  DW_TAG_enumerator
    2275                      .dwattr $C$DW$201, DW_AT_name("ADC_IntNumber_5")
    2276                      .dwattr $C$DW$201, DW_AT_const_value(0x04)
    2277              
    2278              $C$DW$202       .dwtag  DW_TAG_enumerator
    2279                      .dwattr $C$DW$202, DW_AT_name("ADC_IntNumber_6")
    2280                      .dwattr $C$DW$202, DW_AT_const_value(0x05)
    2281              
    2282              $C$DW$203       .dwtag  DW_TAG_enumerator
    2283                      .dwattr $C$DW$203, DW_AT_name("ADC_IntNumber_7")
    2284                      .dwattr $C$DW$203, DW_AT_const_value(0x06)
    2285              
    2286              $C$DW$204       .dwtag  DW_TAG_enumerator
    2287                      .dwattr $C$DW$204, DW_AT_name("ADC_IntNumber_8")
    2288                      .dwattr $C$DW$204, DW_AT_const_value(0x07)
    2289              
    2290              $C$DW$205       .dwtag  DW_TAG_enumerator
    2291                      .dwattr $C$DW$205, DW_AT_name("ADC_IntNumber_9")
    2292                      .dwattr $C$DW$205, DW_AT_const_value(0x08)
    2293              
    2294              $C$DW$206       .dwtag  DW_TAG_enumerator
    2295                      .dwattr $C$DW$206, DW_AT_name("ADC_IntNumber_1HP")
    2296                      .dwattr $C$DW$206, DW_AT_const_value(0x09)
    2297              
    2298              $C$DW$207       .dwtag  DW_TAG_enumerator
    2299                      .dwattr $C$DW$207, DW_AT_name("ADC_IntNumber_2HP")
    2300                      .dwattr $C$DW$207, DW_AT_const_value(0x0a)
    2301              
    2302              $C$DW$208       .dwtag  DW_TAG_enumerator
    2303                      .dwattr $C$DW$208, DW_AT_name("ADC_IntNumber_9HP")
    2304                      .dwattr $C$DW$208, DW_AT_const_value(0x0e)
    2305              
    2306                      .dwendtag $C$DW$T$43
    2307              
    2308              $C$DW$T$44      .dwtag  DW_TAG_typedef
    2309                      .dwattr $C$DW$T$44, DW_AT_name("ADC_IntNumber_e")
    2310                      .dwattr $C$DW$T$44, DW_AT_type(*$C$DW$T$43)
    2311                      .dwattr $C$DW$T$44, DW_AT_language(DW_LANG_C)
    2312              
    2313              $C$DW$209       .dwtag  DW_TAG_TI_far_type
    2314                      .dwattr $C$DW$209, DW_AT_type(*$C$DW$T$44)
    2315              
    2316              $C$DW$T$45      .dwtag  DW_TAG_const_type
    2317                      .dwattr $C$DW$T$45, DW_AT_type(*$C$DW$209)
    2318              
    2319              
TMS320C2000 Assembler PC v16.9.1 Wed Jan 04 15:50:42 2017

Tools Copyright (c) 1996-2015 Texas Instruments Incorporated
C:\Users\ROSSYE~1\AppData\Local\Temp\0152010                         PAGE   44

    2320              $C$DW$T$46      .dwtag  DW_TAG_enumeration_type
    2321                      .dwattr $C$DW$T$46, DW_AT_byte_size(0x01)
    2322              $C$DW$210       .dwtag  DW_TAG_enumerator
    2323                      .dwattr $C$DW$210, DW_AT_name("PWM_Number_1")
    2324                      .dwattr $C$DW$210, DW_AT_const_value(0x00)
    2325              
    2326              $C$DW$211       .dwtag  DW_TAG_enumerator
    2327                      .dwattr $C$DW$211, DW_AT_name("PWM_Number_2")
    2328                      .dwattr $C$DW$211, DW_AT_const_value(0x01)
    2329              
    2330              $C$DW$212       .dwtag  DW_TAG_enumerator
    2331                      .dwattr $C$DW$212, DW_AT_name("PWM_Number_3")
    2332                      .dwattr $C$DW$212, DW_AT_const_value(0x02)
    2333              
    2334              $C$DW$213       .dwtag  DW_TAG_enumerator
    2335                      .dwattr $C$DW$213, DW_AT_name("PWM_Number_4")
    2336                      .dwattr $C$DW$213, DW_AT_const_value(0x03)
    2337              
    2338                      .dwendtag $C$DW$T$46
    2339              
    2340              $C$DW$T$47      .dwtag  DW_TAG_typedef
    2341                      .dwattr $C$DW$T$47, DW_AT_name("PWM_Number_e")
    2342                      .dwattr $C$DW$T$47, DW_AT_type(*$C$DW$T$46)
    2343                      .dwattr $C$DW$T$47, DW_AT_language(DW_LANG_C)
    2344              
    2345              $C$DW$214       .dwtag  DW_TAG_TI_far_type
    2346                      .dwattr $C$DW$214, DW_AT_type(*$C$DW$T$47)
    2347              
    2348              $C$DW$T$48      .dwtag  DW_TAG_const_type
    2349                      .dwattr $C$DW$T$48, DW_AT_type(*$C$DW$214)
    2350              
    2351              
    2352              $C$DW$T$49      .dwtag  DW_TAG_enumeration_type
    2353                      .dwattr $C$DW$T$49, DW_AT_byte_size(0x01)
    2354              $C$DW$215       .dwtag  DW_TAG_enumerator
    2355                      .dwattr $C$DW$215, DW_AT_name("PIE_SubGroupNumber_1")
    2356                      .dwattr $C$DW$215, DW_AT_const_value(0x00)
    2357              
    2358              $C$DW$216       .dwtag  DW_TAG_enumerator
    2359                      .dwattr $C$DW$216, DW_AT_name("PIE_SubGroupNumber_2")
    2360                      .dwattr $C$DW$216, DW_AT_const_value(0x01)
    2361              
    2362              $C$DW$217       .dwtag  DW_TAG_enumerator
    2363                      .dwattr $C$DW$217, DW_AT_name("PIE_SubGroupNumber_3")
    2364                      .dwattr $C$DW$217, DW_AT_const_value(0x02)
    2365              
    2366              $C$DW$218       .dwtag  DW_TAG_enumerator
    2367                      .dwattr $C$DW$218, DW_AT_name("PIE_SubGroupNumber_4")
    2368                      .dwattr $C$DW$218, DW_AT_const_value(0x03)
    2369              
    2370              $C$DW$219       .dwtag  DW_TAG_enumerator
    2371                      .dwattr $C$DW$219, DW_AT_name("PIE_SubGroupNumber_5")
    2372                      .dwattr $C$DW$219, DW_AT_const_value(0x04)
    2373              
    2374              $C$DW$220       .dwtag  DW_TAG_enumerator
TMS320C2000 Assembler PC v16.9.1 Wed Jan 04 15:50:42 2017

Tools Copyright (c) 1996-2015 Texas Instruments Incorporated
C:\Users\ROSSYE~1\AppData\Local\Temp\0152010                         PAGE   45

    2375                      .dwattr $C$DW$220, DW_AT_name("PIE_SubGroupNumber_6")
    2376                      .dwattr $C$DW$220, DW_AT_const_value(0x05)
    2377              
    2378              $C$DW$221       .dwtag  DW_TAG_enumerator
    2379                      .dwattr $C$DW$221, DW_AT_name("PIE_SubGroupNumber_7")
    2380                      .dwattr $C$DW$221, DW_AT_const_value(0x06)
    2381              
    2382              $C$DW$222       .dwtag  DW_TAG_enumerator
    2383                      .dwattr $C$DW$222, DW_AT_name("PIE_SubGroupNumber_8")
    2384                      .dwattr $C$DW$222, DW_AT_const_value(0x07)
    2385              
    2386                      .dwendtag $C$DW$T$49
    2387              
    2388              $C$DW$T$50      .dwtag  DW_TAG_typedef
    2389                      .dwattr $C$DW$T$50, DW_AT_name("PIE_SubGroupNumber_e")
    2390                      .dwattr $C$DW$T$50, DW_AT_type(*$C$DW$T$49)
    2391                      .dwattr $C$DW$T$50, DW_AT_language(DW_LANG_C)
    2392              
    2393              $C$DW$223       .dwtag  DW_TAG_TI_far_type
    2394                      .dwattr $C$DW$223, DW_AT_type(*$C$DW$T$50)
    2395              
    2396              $C$DW$T$51      .dwtag  DW_TAG_const_type
    2397                      .dwattr $C$DW$T$51, DW_AT_type(*$C$DW$223)
    2398              
    2399              
    2400              $C$DW$T$52      .dwtag  DW_TAG_enumeration_type
    2401                      .dwattr $C$DW$T$52, DW_AT_byte_size(0x01)
    2402              $C$DW$224       .dwtag  DW_TAG_enumerator
    2403                      .dwattr $C$DW$224, DW_AT_name("PIE_SystemInterrupts_Reset")
    2404                      .dwattr $C$DW$224, DW_AT_const_value(0x00)
    2405              
    2406              $C$DW$225       .dwtag  DW_TAG_enumerator
    2407                      .dwattr $C$DW$225, DW_AT_name("PIE_SystemInterrupts_INT1")
    2408                      .dwattr $C$DW$225, DW_AT_const_value(0x01)
    2409              
    2410              $C$DW$226       .dwtag  DW_TAG_enumerator
    2411                      .dwattr $C$DW$226, DW_AT_name("PIE_SystemInterrupts_INT2")
    2412                      .dwattr $C$DW$226, DW_AT_const_value(0x02)
    2413              
    2414              $C$DW$227       .dwtag  DW_TAG_enumerator
    2415                      .dwattr $C$DW$227, DW_AT_name("PIE_SystemInterrupts_INT3")
    2416                      .dwattr $C$DW$227, DW_AT_const_value(0x03)
    2417              
    2418              $C$DW$228       .dwtag  DW_TAG_enumerator
    2419                      .dwattr $C$DW$228, DW_AT_name("PIE_SystemInterrupts_INT4")
    2420                      .dwattr $C$DW$228, DW_AT_const_value(0x04)
    2421              
    2422              $C$DW$229       .dwtag  DW_TAG_enumerator
    2423                      .dwattr $C$DW$229, DW_AT_name("PIE_SystemInterrupts_INT5")
    2424                      .dwattr $C$DW$229, DW_AT_const_value(0x05)
    2425              
    2426              $C$DW$230       .dwtag  DW_TAG_enumerator
    2427                      .dwattr $C$DW$230, DW_AT_name("PIE_SystemInterrupts_INT6")
    2428                      .dwattr $C$DW$230, DW_AT_const_value(0x06)
    2429              
TMS320C2000 Assembler PC v16.9.1 Wed Jan 04 15:50:42 2017

Tools Copyright (c) 1996-2015 Texas Instruments Incorporated
C:\Users\ROSSYE~1\AppData\Local\Temp\0152010                         PAGE   46

    2430              $C$DW$231       .dwtag  DW_TAG_enumerator
    2431                      .dwattr $C$DW$231, DW_AT_name("PIE_SystemInterrupts_INT7")
    2432                      .dwattr $C$DW$231, DW_AT_const_value(0x07)
    2433              
    2434              $C$DW$232       .dwtag  DW_TAG_enumerator
    2435                      .dwattr $C$DW$232, DW_AT_name("PIE_SystemInterrupts_INT8")
    2436                      .dwattr $C$DW$232, DW_AT_const_value(0x08)
    2437              
    2438              $C$DW$233       .dwtag  DW_TAG_enumerator
    2439                      .dwattr $C$DW$233, DW_AT_name("PIE_SystemInterrupts_INT9")
    2440                      .dwattr $C$DW$233, DW_AT_const_value(0x09)
    2441              
    2442              $C$DW$234       .dwtag  DW_TAG_enumerator
    2443                      .dwattr $C$DW$234, DW_AT_name("PIE_SystemInterrupts_INT10")
    2444                      .dwattr $C$DW$234, DW_AT_const_value(0x0a)
    2445              
    2446              $C$DW$235       .dwtag  DW_TAG_enumerator
    2447                      .dwattr $C$DW$235, DW_AT_name("PIE_SystemInterrupts_INT11")
    2448                      .dwattr $C$DW$235, DW_AT_const_value(0x0b)
    2449              
    2450              $C$DW$236       .dwtag  DW_TAG_enumerator
    2451                      .dwattr $C$DW$236, DW_AT_name("PIE_SystemInterrupts_INT12")
    2452                      .dwattr $C$DW$236, DW_AT_const_value(0x0c)
    2453              
    2454              $C$DW$237       .dwtag  DW_TAG_enumerator
    2455                      .dwattr $C$DW$237, DW_AT_name("PIE_SystemInterrupts_TINT1")
    2456                      .dwattr $C$DW$237, DW_AT_const_value(0x0d)
    2457              
    2458              $C$DW$238       .dwtag  DW_TAG_enumerator
    2459                      .dwattr $C$DW$238, DW_AT_name("PIE_SystemInterrupts_TINT2")
    2460                      .dwattr $C$DW$238, DW_AT_const_value(0x0e)
    2461              
    2462              $C$DW$239       .dwtag  DW_TAG_enumerator
    2463                      .dwattr $C$DW$239, DW_AT_name("PIE_SystemInterrupts_DATALOG")
    2464                      .dwattr $C$DW$239, DW_AT_const_value(0x0f)
    2465              
    2466              $C$DW$240       .dwtag  DW_TAG_enumerator
    2467                      .dwattr $C$DW$240, DW_AT_name("PIE_SystemInterrupts_RTOSINT")
    2468                      .dwattr $C$DW$240, DW_AT_const_value(0x10)
    2469              
    2470              $C$DW$241       .dwtag  DW_TAG_enumerator
    2471                      .dwattr $C$DW$241, DW_AT_name("PIE_SystemInterrupts_EMUINT")
    2472                      .dwattr $C$DW$241, DW_AT_const_value(0x11)
    2473              
    2474              $C$DW$242       .dwtag  DW_TAG_enumerator
    2475                      .dwattr $C$DW$242, DW_AT_name("PIE_SystemInterrupts_NMI")
    2476                      .dwattr $C$DW$242, DW_AT_const_value(0x12)
    2477              
    2478              $C$DW$243       .dwtag  DW_TAG_enumerator
    2479                      .dwattr $C$DW$243, DW_AT_name("PIE_SystemInterrupts_ILLEGAL")
    2480                      .dwattr $C$DW$243, DW_AT_const_value(0x13)
    2481              
    2482              $C$DW$244       .dwtag  DW_TAG_enumerator
    2483                      .dwattr $C$DW$244, DW_AT_name("PIE_SystemInterrupts_USER1")
    2484                      .dwattr $C$DW$244, DW_AT_const_value(0x14)
TMS320C2000 Assembler PC v16.9.1 Wed Jan 04 15:50:42 2017

Tools Copyright (c) 1996-2015 Texas Instruments Incorporated
C:\Users\ROSSYE~1\AppData\Local\Temp\0152010                         PAGE   47

    2485              
    2486              $C$DW$245       .dwtag  DW_TAG_enumerator
    2487                      .dwattr $C$DW$245, DW_AT_name("PIE_SystemInterrupts_USER2")
    2488                      .dwattr $C$DW$245, DW_AT_const_value(0x15)
    2489              
    2490              $C$DW$246       .dwtag  DW_TAG_enumerator
    2491                      .dwattr $C$DW$246, DW_AT_name("PIE_SystemInterrupts_USER3")
    2492                      .dwattr $C$DW$246, DW_AT_const_value(0x16)
    2493              
    2494              $C$DW$247       .dwtag  DW_TAG_enumerator
    2495                      .dwattr $C$DW$247, DW_AT_name("PIE_SystemInterrupts_USER4")
    2496                      .dwattr $C$DW$247, DW_AT_const_value(0x17)
    2497              
    2498              $C$DW$248       .dwtag  DW_TAG_enumerator
    2499                      .dwattr $C$DW$248, DW_AT_name("PIE_SystemInterrupts_USER5")
    2500                      .dwattr $C$DW$248, DW_AT_const_value(0x18)
    2501              
    2502              $C$DW$249       .dwtag  DW_TAG_enumerator
    2503                      .dwattr $C$DW$249, DW_AT_name("PIE_SystemInterrupts_USER6")
    2504                      .dwattr $C$DW$249, DW_AT_const_value(0x19)
    2505              
    2506              $C$DW$250       .dwtag  DW_TAG_enumerator
    2507                      .dwattr $C$DW$250, DW_AT_name("PIE_SystemInterrupts_USER7")
    2508                      .dwattr $C$DW$250, DW_AT_const_value(0x1a)
    2509              
    2510              $C$DW$251       .dwtag  DW_TAG_enumerator
    2511                      .dwattr $C$DW$251, DW_AT_name("PIE_SystemInterrupts_USER8")
    2512                      .dwattr $C$DW$251, DW_AT_const_value(0x1b)
    2513              
    2514              $C$DW$252       .dwtag  DW_TAG_enumerator
    2515                      .dwattr $C$DW$252, DW_AT_name("PIE_SystemInterrupts_USER9")
    2516                      .dwattr $C$DW$252, DW_AT_const_value(0x1c)
    2517              
    2518              $C$DW$253       .dwtag  DW_TAG_enumerator
    2519                      .dwattr $C$DW$253, DW_AT_name("PIE_SystemInterrupts_USER10")
    2520                      .dwattr $C$DW$253, DW_AT_const_value(0x1d)
    2521              
    2522              $C$DW$254       .dwtag  DW_TAG_enumerator
    2523                      .dwattr $C$DW$254, DW_AT_name("PIE_SystemInterrupts_USER11")
    2524                      .dwattr $C$DW$254, DW_AT_const_value(0x1e)
    2525              
    2526              $C$DW$255       .dwtag  DW_TAG_enumerator
    2527                      .dwattr $C$DW$255, DW_AT_name("PIE_SystemInterrupts_USER12")
    2528                      .dwattr $C$DW$255, DW_AT_const_value(0x1f)
    2529              
    2530                      .dwendtag $C$DW$T$52
    2531              
    2532              $C$DW$T$53      .dwtag  DW_TAG_typedef
    2533                      .dwattr $C$DW$T$53, DW_AT_name("PIE_SystemInterrupts_e")
    2534                      .dwattr $C$DW$T$53, DW_AT_type(*$C$DW$T$52)
    2535                      .dwattr $C$DW$T$53, DW_AT_language(DW_LANG_C)
    2536              
    2537              
    2538              $C$DW$T$55      .dwtag  DW_TAG_enumeration_type
    2539                      .dwattr $C$DW$T$55, DW_AT_byte_size(0x01)
TMS320C2000 Assembler PC v16.9.1 Wed Jan 04 15:50:42 2017

Tools Copyright (c) 1996-2015 Texas Instruments Incorporated
C:\Users\ROSSYE~1\AppData\Local\Temp\0152010                         PAGE   48

    2540              $C$DW$256       .dwtag  DW_TAG_enumerator
    2541                      .dwattr $C$DW$256, DW_AT_name("PIE_ExtIntPolarity_FallingEdge")
    2542                      .dwattr $C$DW$256, DW_AT_const_value(0x00)
    2543              
    2544              $C$DW$257       .dwtag  DW_TAG_enumerator
    2545                      .dwattr $C$DW$257, DW_AT_name("PIE_ExtIntPolarity_RisingEdge")
    2546                      .dwattr $C$DW$257, DW_AT_const_value(0x04)
    2547              
    2548              $C$DW$258       .dwtag  DW_TAG_enumerator
    2549                      .dwattr $C$DW$258, DW_AT_name("PIE_ExtIntPolarity_RisingAndFallingEdge")
    2550                      .dwattr $C$DW$258, DW_AT_const_value(0x0c)
    2551              
    2552                      .dwendtag $C$DW$T$55
    2553              
    2554              $C$DW$T$56      .dwtag  DW_TAG_typedef
    2555                      .dwattr $C$DW$T$56, DW_AT_name("PIE_ExtIntPolarity_e")
    2556                      .dwattr $C$DW$T$56, DW_AT_type(*$C$DW$T$55)
    2557                      .dwattr $C$DW$T$56, DW_AT_language(DW_LANG_C)
    2558              
    2559              $C$DW$259       .dwtag  DW_TAG_TI_far_type
    2560                      .dwattr $C$DW$259, DW_AT_type(*$C$DW$T$56)
    2561              
    2562              $C$DW$T$57      .dwtag  DW_TAG_const_type
    2563                      .dwattr $C$DW$T$57, DW_AT_type(*$C$DW$259)
    2564              
    2565              
    2566              $C$DW$T$21      .dwtag  DW_TAG_structure_type
    2567                      .dwattr $C$DW$T$21, DW_AT_name("_PIE_IERIFR_t")
    2568                      .dwattr $C$DW$T$21, DW_AT_byte_size(0x02)
    2569              $C$DW$260       .dwtag  DW_TAG_member
    2570                      .dwattr $C$DW$260, DW_AT_type(*$C$DW$T$20)
    2571                      .dwattr $C$DW$260, DW_AT_name("IER")
    2572                      .dwattr $C$DW$260, DW_AT_TI_symbol_name("_IER")
    2573                      .dwattr $C$DW$260, DW_AT_data_member_location[DW_OP_plus_uconst 0x0]
    2574                      .dwattr $C$DW$260, DW_AT_accessibility(DW_ACCESS_public)
    2575              
    2576              $C$DW$261       .dwtag  DW_TAG_member
    2577                      .dwattr $C$DW$261, DW_AT_type(*$C$DW$T$20)
    2578                      .dwattr $C$DW$261, DW_AT_name("IFR")
    2579                      .dwattr $C$DW$261, DW_AT_TI_symbol_name("_IFR")
    2580                      .dwattr $C$DW$261, DW_AT_data_member_location[DW_OP_plus_uconst 0x1]
    2581                      .dwattr $C$DW$261, DW_AT_accessibility(DW_ACCESS_public)
    2582              
    2583                      .dwendtag $C$DW$T$21
    2584              
    2585              $C$DW$T$22      .dwtag  DW_TAG_typedef
    2586                      .dwattr $C$DW$T$22, DW_AT_name("PIE_IERIFR_t")
    2587                      .dwattr $C$DW$T$22, DW_AT_type(*$C$DW$T$21)
    2588                      .dwattr $C$DW$T$22, DW_AT_language(DW_LANG_C)
    2589              
    2590              $C$DW$262       .dwtag  DW_TAG_TI_far_type
    2591                      .dwattr $C$DW$262, DW_AT_type(*$C$DW$T$22)
    2592              
    2593              $C$DW$T$23      .dwtag  DW_TAG_volatile_type
    2594                      .dwattr $C$DW$T$23, DW_AT_type(*$C$DW$262)
TMS320C2000 Assembler PC v16.9.1 Wed Jan 04 15:50:42 2017

Tools Copyright (c) 1996-2015 Texas Instruments Incorporated
C:\Users\ROSSYE~1\AppData\Local\Temp\0152010                         PAGE   49

    2595              
    2596              
    2597              $C$DW$T$24      .dwtag  DW_TAG_array_type
    2598                      .dwattr $C$DW$T$24, DW_AT_type(*$C$DW$T$23)
    2599                      .dwattr $C$DW$T$24, DW_AT_language(DW_LANG_C)
    2600                      .dwattr $C$DW$T$24, DW_AT_byte_size(0x18)
    2601              $C$DW$263       .dwtag  DW_TAG_subrange_type
    2602                      .dwattr $C$DW$263, DW_AT_upper_bound(0x0b)
    2603              
    2604                      .dwendtag $C$DW$T$24
    2605              
    2606              
    2607              $C$DW$T$33      .dwtag  DW_TAG_structure_type
    2608                      .dwattr $C$DW$T$33, DW_AT_name("_PIE_Obj_")
    2609                      .dwattr $C$DW$T$33, DW_AT_byte_size(0x639c)
    2610              $C$DW$264       .dwtag  DW_TAG_member
    2611                      .dwattr $C$DW$264, DW_AT_type(*$C$DW$T$20)
    2612                      .dwattr $C$DW$264, DW_AT_name("PIECTRL")
    2613                      .dwattr $C$DW$264, DW_AT_TI_symbol_name("_PIECTRL")
    2614                      .dwattr $C$DW$264, DW_AT_data_member_location[DW_OP_plus_uconst 0x0]
    2615                      .dwattr $C$DW$264, DW_AT_accessibility(DW_ACCESS_public)
    2616              
    2617              $C$DW$265       .dwtag  DW_TAG_member
    2618                      .dwattr $C$DW$265, DW_AT_type(*$C$DW$T$20)
    2619                      .dwattr $C$DW$265, DW_AT_name("PIEACK")
    2620                      .dwattr $C$DW$265, DW_AT_TI_symbol_name("_PIEACK")
    2621                      .dwattr $C$DW$265, DW_AT_data_member_location[DW_OP_plus_uconst 0x1]
    2622                      .dwattr $C$DW$265, DW_AT_accessibility(DW_ACCESS_public)
    2623              
    2624              $C$DW$266       .dwtag  DW_TAG_member
    2625                      .dwattr $C$DW$266, DW_AT_type(*$C$DW$T$24)
    2626                      .dwattr $C$DW$266, DW_AT_name("PIEIER_PIEIFR")
    2627                      .dwattr $C$DW$266, DW_AT_TI_symbol_name("_PIEIER_PIEIFR")
    2628                      .dwattr $C$DW$266, DW_AT_data_member_location[DW_OP_plus_uconst 0x2]
    2629                      .dwattr $C$DW$266, DW_AT_accessibility(DW_ACCESS_public)
    2630              
    2631              $C$DW$267       .dwtag  DW_TAG_member
    2632                      .dwattr $C$DW$267, DW_AT_type(*$C$DW$T$25)
    2633                      .dwattr $C$DW$267, DW_AT_name("rsvd_1")
    2634                      .dwattr $C$DW$267, DW_AT_TI_symbol_name("_rsvd_1")
    2635                      .dwattr $C$DW$267, DW_AT_data_member_location[DW_OP_plus_uconst 0x1a]
    2636                      .dwattr $C$DW$267, DW_AT_accessibility(DW_ACCESS_public)
    2637              
    2638              $C$DW$268       .dwtag  DW_TAG_member
    2639                      .dwattr $C$DW$268, DW_AT_type(*$C$DW$T$29)
    2640                      .dwattr $C$DW$268, DW_AT_name("Reset")
    2641                      .dwattr $C$DW$268, DW_AT_TI_symbol_name("_Reset")
    2642                      .dwattr $C$DW$268, DW_AT_data_member_location[DW_OP_plus_uconst 0x20]
    2643                      .dwattr $C$DW$268, DW_AT_accessibility(DW_ACCESS_public)
    2644              
    2645              $C$DW$269       .dwtag  DW_TAG_member
    2646                      .dwattr $C$DW$269, DW_AT_type(*$C$DW$T$29)
    2647                      .dwattr $C$DW$269, DW_AT_name("INT1")
    2648                      .dwattr $C$DW$269, DW_AT_TI_symbol_name("_INT1")
    2649                      .dwattr $C$DW$269, DW_AT_data_member_location[DW_OP_plus_uconst 0x22]
TMS320C2000 Assembler PC v16.9.1 Wed Jan 04 15:50:42 2017

Tools Copyright (c) 1996-2015 Texas Instruments Incorporated
C:\Users\ROSSYE~1\AppData\Local\Temp\0152010                         PAGE   50

    2650                      .dwattr $C$DW$269, DW_AT_accessibility(DW_ACCESS_public)
    2651              
    2652              $C$DW$270       .dwtag  DW_TAG_member
    2653                      .dwattr $C$DW$270, DW_AT_type(*$C$DW$T$29)
    2654                      .dwattr $C$DW$270, DW_AT_name("INT2")
    2655                      .dwattr $C$DW$270, DW_AT_TI_symbol_name("_INT2")
    2656                      .dwattr $C$DW$270, DW_AT_data_member_location[DW_OP_plus_uconst 0x24]
    2657                      .dwattr $C$DW$270, DW_AT_accessibility(DW_ACCESS_public)
    2658              
    2659              $C$DW$271       .dwtag  DW_TAG_member
    2660                      .dwattr $C$DW$271, DW_AT_type(*$C$DW$T$29)
    2661                      .dwattr $C$DW$271, DW_AT_name("INT3")
    2662                      .dwattr $C$DW$271, DW_AT_TI_symbol_name("_INT3")
    2663                      .dwattr $C$DW$271, DW_AT_data_member_location[DW_OP_plus_uconst 0x26]
    2664                      .dwattr $C$DW$271, DW_AT_accessibility(DW_ACCESS_public)
    2665              
    2666              $C$DW$272       .dwtag  DW_TAG_member
    2667                      .dwattr $C$DW$272, DW_AT_type(*$C$DW$T$29)
    2668                      .dwattr $C$DW$272, DW_AT_name("INT4")
    2669                      .dwattr $C$DW$272, DW_AT_TI_symbol_name("_INT4")
    2670                      .dwattr $C$DW$272, DW_AT_data_member_location[DW_OP_plus_uconst 0x28]
    2671                      .dwattr $C$DW$272, DW_AT_accessibility(DW_ACCESS_public)
    2672              
    2673              $C$DW$273       .dwtag  DW_TAG_member
    2674                      .dwattr $C$DW$273, DW_AT_type(*$C$DW$T$29)
    2675                      .dwattr $C$DW$273, DW_AT_name("INT5")
    2676                      .dwattr $C$DW$273, DW_AT_TI_symbol_name("_INT5")
    2677                      .dwattr $C$DW$273, DW_AT_data_member_location[DW_OP_plus_uconst 0x2a]
    2678                      .dwattr $C$DW$273, DW_AT_accessibility(DW_ACCESS_public)
    2679              
    2680              $C$DW$274       .dwtag  DW_TAG_member
    2681                      .dwattr $C$DW$274, DW_AT_type(*$C$DW$T$29)
    2682                      .dwattr $C$DW$274, DW_AT_name("INT6")
    2683                      .dwattr $C$DW$274, DW_AT_TI_symbol_name("_INT6")
    2684                      .dwattr $C$DW$274, DW_AT_data_member_location[DW_OP_plus_uconst 0x2c]
    2685                      .dwattr $C$DW$274, DW_AT_accessibility(DW_ACCESS_public)
    2686              
    2687              $C$DW$275       .dwtag  DW_TAG_member
    2688                      .dwattr $C$DW$275, DW_AT_type(*$C$DW$T$29)
    2689                      .dwattr $C$DW$275, DW_AT_name("INT7")
    2690                      .dwattr $C$DW$275, DW_AT_TI_symbol_name("_INT7")
    2691                      .dwattr $C$DW$275, DW_AT_data_member_location[DW_OP_plus_uconst 0x2e]
    2692                      .dwattr $C$DW$275, DW_AT_accessibility(DW_ACCESS_public)
    2693              
    2694              $C$DW$276       .dwtag  DW_TAG_member
    2695                      .dwattr $C$DW$276, DW_AT_type(*$C$DW$T$29)
    2696                      .dwattr $C$DW$276, DW_AT_name("INT8")
    2697                      .dwattr $C$DW$276, DW_AT_TI_symbol_name("_INT8")
    2698                      .dwattr $C$DW$276, DW_AT_data_member_location[DW_OP_plus_uconst 0x30]
    2699                      .dwattr $C$DW$276, DW_AT_accessibility(DW_ACCESS_public)
    2700              
    2701              $C$DW$277       .dwtag  DW_TAG_member
    2702                      .dwattr $C$DW$277, DW_AT_type(*$C$DW$T$29)
    2703                      .dwattr $C$DW$277, DW_AT_name("INT9")
    2704                      .dwattr $C$DW$277, DW_AT_TI_symbol_name("_INT9")
TMS320C2000 Assembler PC v16.9.1 Wed Jan 04 15:50:42 2017

Tools Copyright (c) 1996-2015 Texas Instruments Incorporated
C:\Users\ROSSYE~1\AppData\Local\Temp\0152010                         PAGE   51

    2705                      .dwattr $C$DW$277, DW_AT_data_member_location[DW_OP_plus_uconst 0x32]
    2706                      .dwattr $C$DW$277, DW_AT_accessibility(DW_ACCESS_public)
    2707              
    2708              $C$DW$278       .dwtag  DW_TAG_member
    2709                      .dwattr $C$DW$278, DW_AT_type(*$C$DW$T$29)
    2710                      .dwattr $C$DW$278, DW_AT_name("INT10")
    2711                      .dwattr $C$DW$278, DW_AT_TI_symbol_name("_INT10")
    2712                      .dwattr $C$DW$278, DW_AT_data_member_location[DW_OP_plus_uconst 0x34]
    2713                      .dwattr $C$DW$278, DW_AT_accessibility(DW_ACCESS_public)
    2714              
    2715              $C$DW$279       .dwtag  DW_TAG_member
    2716                      .dwattr $C$DW$279, DW_AT_type(*$C$DW$T$29)
    2717                      .dwattr $C$DW$279, DW_AT_name("INT11")
    2718                      .dwattr $C$DW$279, DW_AT_TI_symbol_name("_INT11")
    2719                      .dwattr $C$DW$279, DW_AT_data_member_location[DW_OP_plus_uconst 0x36]
    2720                      .dwattr $C$DW$279, DW_AT_accessibility(DW_ACCESS_public)
    2721              
    2722              $C$DW$280       .dwtag  DW_TAG_member
    2723                      .dwattr $C$DW$280, DW_AT_type(*$C$DW$T$29)
    2724                      .dwattr $C$DW$280, DW_AT_name("INT12")
    2725                      .dwattr $C$DW$280, DW_AT_TI_symbol_name("_INT12")
    2726                      .dwattr $C$DW$280, DW_AT_data_member_location[DW_OP_plus_uconst 0x38]
    2727                      .dwattr $C$DW$280, DW_AT_accessibility(DW_ACCESS_public)
    2728              
    2729              $C$DW$281       .dwtag  DW_TAG_member
    2730                      .dwattr $C$DW$281, DW_AT_type(*$C$DW$T$29)
    2731                      .dwattr $C$DW$281, DW_AT_name("TINT1")
    2732                      .dwattr $C$DW$281, DW_AT_TI_symbol_name("_TINT1")
    2733                      .dwattr $C$DW$281, DW_AT_data_member_location[DW_OP_plus_uconst 0x3a]
    2734                      .dwattr $C$DW$281, DW_AT_accessibility(DW_ACCESS_public)
    2735              
    2736              $C$DW$282       .dwtag  DW_TAG_member
    2737                      .dwattr $C$DW$282, DW_AT_type(*$C$DW$T$29)
    2738                      .dwattr $C$DW$282, DW_AT_name("TINT2")
    2739                      .dwattr $C$DW$282, DW_AT_TI_symbol_name("_TINT2")
    2740                      .dwattr $C$DW$282, DW_AT_data_member_location[DW_OP_plus_uconst 0x3c]
    2741                      .dwattr $C$DW$282, DW_AT_accessibility(DW_ACCESS_public)
    2742              
    2743              $C$DW$283       .dwtag  DW_TAG_member
    2744                      .dwattr $C$DW$283, DW_AT_type(*$C$DW$T$29)
    2745                      .dwattr $C$DW$283, DW_AT_name("DATALOG")
    2746                      .dwattr $C$DW$283, DW_AT_TI_symbol_name("_DATALOG")
    2747                      .dwattr $C$DW$283, DW_AT_data_member_location[DW_OP_plus_uconst 0x3e]
    2748                      .dwattr $C$DW$283, DW_AT_accessibility(DW_ACCESS_public)
    2749              
    2750              $C$DW$284       .dwtag  DW_TAG_member
    2751                      .dwattr $C$DW$284, DW_AT_type(*$C$DW$T$29)
    2752                      .dwattr $C$DW$284, DW_AT_name("RTOSINT")
    2753                      .dwattr $C$DW$284, DW_AT_TI_symbol_name("_RTOSINT")
    2754                      .dwattr $C$DW$284, DW_AT_data_member_location[DW_OP_plus_uconst 0x40]
    2755                      .dwattr $C$DW$284, DW_AT_accessibility(DW_ACCESS_public)
    2756              
    2757              $C$DW$285       .dwtag  DW_TAG_member
    2758                      .dwattr $C$DW$285, DW_AT_type(*$C$DW$T$29)
    2759                      .dwattr $C$DW$285, DW_AT_name("EMUINT")
TMS320C2000 Assembler PC v16.9.1 Wed Jan 04 15:50:42 2017

Tools Copyright (c) 1996-2015 Texas Instruments Incorporated
C:\Users\ROSSYE~1\AppData\Local\Temp\0152010                         PAGE   52

    2760                      .dwattr $C$DW$285, DW_AT_TI_symbol_name("_EMUINT")
    2761                      .dwattr $C$DW$285, DW_AT_data_member_location[DW_OP_plus_uconst 0x42]
    2762                      .dwattr $C$DW$285, DW_AT_accessibility(DW_ACCESS_public)
    2763              
    2764              $C$DW$286       .dwtag  DW_TAG_member
    2765                      .dwattr $C$DW$286, DW_AT_type(*$C$DW$T$29)
    2766                      .dwattr $C$DW$286, DW_AT_name("NMI")
    2767                      .dwattr $C$DW$286, DW_AT_TI_symbol_name("_NMI")
    2768                      .dwattr $C$DW$286, DW_AT_data_member_location[DW_OP_plus_uconst 0x44]
    2769                      .dwattr $C$DW$286, DW_AT_accessibility(DW_ACCESS_public)
    2770              
    2771              $C$DW$287       .dwtag  DW_TAG_member
    2772                      .dwattr $C$DW$287, DW_AT_type(*$C$DW$T$29)
    2773                      .dwattr $C$DW$287, DW_AT_name("ILLEGAL")
    2774                      .dwattr $C$DW$287, DW_AT_TI_symbol_name("_ILLEGAL")
    2775                      .dwattr $C$DW$287, DW_AT_data_member_location[DW_OP_plus_uconst 0x46]
    2776                      .dwattr $C$DW$287, DW_AT_accessibility(DW_ACCESS_public)
    2777              
    2778              $C$DW$288       .dwtag  DW_TAG_member
    2779                      .dwattr $C$DW$288, DW_AT_type(*$C$DW$T$29)
    2780                      .dwattr $C$DW$288, DW_AT_name("USER1")
    2781                      .dwattr $C$DW$288, DW_AT_TI_symbol_name("_USER1")
    2782                      .dwattr $C$DW$288, DW_AT_data_member_location[DW_OP_plus_uconst 0x48]
    2783                      .dwattr $C$DW$288, DW_AT_accessibility(DW_ACCESS_public)
    2784              
    2785              $C$DW$289       .dwtag  DW_TAG_member
    2786                      .dwattr $C$DW$289, DW_AT_type(*$C$DW$T$29)
    2787                      .dwattr $C$DW$289, DW_AT_name("USER2")
    2788                      .dwattr $C$DW$289, DW_AT_TI_symbol_name("_USER2")
    2789                      .dwattr $C$DW$289, DW_AT_data_member_location[DW_OP_plus_uconst 0x4a]
    2790                      .dwattr $C$DW$289, DW_AT_accessibility(DW_ACCESS_public)
    2791              
    2792              $C$DW$290       .dwtag  DW_TAG_member
    2793                      .dwattr $C$DW$290, DW_AT_type(*$C$DW$T$29)
    2794                      .dwattr $C$DW$290, DW_AT_name("USER3")
    2795                      .dwattr $C$DW$290, DW_AT_TI_symbol_name("_USER3")
    2796                      .dwattr $C$DW$290, DW_AT_data_member_location[DW_OP_plus_uconst 0x4c]
    2797                      .dwattr $C$DW$290, DW_AT_accessibility(DW_ACCESS_public)
    2798              
    2799              $C$DW$291       .dwtag  DW_TAG_member
    2800                      .dwattr $C$DW$291, DW_AT_type(*$C$DW$T$29)
    2801                      .dwattr $C$DW$291, DW_AT_name("USER4")
    2802                      .dwattr $C$DW$291, DW_AT_TI_symbol_name("_USER4")
    2803                      .dwattr $C$DW$291, DW_AT_data_member_location[DW_OP_plus_uconst 0x4e]
    2804                      .dwattr $C$DW$291, DW_AT_accessibility(DW_ACCESS_public)
    2805              
    2806              $C$DW$292       .dwtag  DW_TAG_member
    2807                      .dwattr $C$DW$292, DW_AT_type(*$C$DW$T$29)
    2808                      .dwattr $C$DW$292, DW_AT_name("USER5")
    2809                      .dwattr $C$DW$292, DW_AT_TI_symbol_name("_USER5")
    2810                      .dwattr $C$DW$292, DW_AT_data_member_location[DW_OP_plus_uconst 0x50]
    2811                      .dwattr $C$DW$292, DW_AT_accessibility(DW_ACCESS_public)
    2812              
    2813              $C$DW$293       .dwtag  DW_TAG_member
    2814                      .dwattr $C$DW$293, DW_AT_type(*$C$DW$T$29)
TMS320C2000 Assembler PC v16.9.1 Wed Jan 04 15:50:42 2017

Tools Copyright (c) 1996-2015 Texas Instruments Incorporated
C:\Users\ROSSYE~1\AppData\Local\Temp\0152010                         PAGE   53

    2815                      .dwattr $C$DW$293, DW_AT_name("USER6")
    2816                      .dwattr $C$DW$293, DW_AT_TI_symbol_name("_USER6")
    2817                      .dwattr $C$DW$293, DW_AT_data_member_location[DW_OP_plus_uconst 0x52]
    2818                      .dwattr $C$DW$293, DW_AT_accessibility(DW_ACCESS_public)
    2819              
    2820              $C$DW$294       .dwtag  DW_TAG_member
    2821                      .dwattr $C$DW$294, DW_AT_type(*$C$DW$T$29)
    2822                      .dwattr $C$DW$294, DW_AT_name("USER7")
    2823                      .dwattr $C$DW$294, DW_AT_TI_symbol_name("_USER7")
    2824                      .dwattr $C$DW$294, DW_AT_data_member_location[DW_OP_plus_uconst 0x54]
    2825                      .dwattr $C$DW$294, DW_AT_accessibility(DW_ACCESS_public)
    2826              
    2827              $C$DW$295       .dwtag  DW_TAG_member
    2828                      .dwattr $C$DW$295, DW_AT_type(*$C$DW$T$29)
    2829                      .dwattr $C$DW$295, DW_AT_name("USER8")
    2830                      .dwattr $C$DW$295, DW_AT_TI_symbol_name("_USER8")
    2831                      .dwattr $C$DW$295, DW_AT_data_member_location[DW_OP_plus_uconst 0x56]
    2832                      .dwattr $C$DW$295, DW_AT_accessibility(DW_ACCESS_public)
    2833              
    2834              $C$DW$296       .dwtag  DW_TAG_member
    2835                      .dwattr $C$DW$296, DW_AT_type(*$C$DW$T$29)
    2836                      .dwattr $C$DW$296, DW_AT_name("USER9")
    2837                      .dwattr $C$DW$296, DW_AT_TI_symbol_name("_USER9")
    2838                      .dwattr $C$DW$296, DW_AT_data_member_location[DW_OP_plus_uconst 0x58]
    2839                      .dwattr $C$DW$296, DW_AT_accessibility(DW_ACCESS_public)
    2840              
    2841              $C$DW$297       .dwtag  DW_TAG_member
    2842                      .dwattr $C$DW$297, DW_AT_type(*$C$DW$T$29)
    2843                      .dwattr $C$DW$297, DW_AT_name("USER10")
    2844                      .dwattr $C$DW$297, DW_AT_TI_symbol_name("_USER10")
    2845                      .dwattr $C$DW$297, DW_AT_data_member_location[DW_OP_plus_uconst 0x5a]
    2846                      .dwattr $C$DW$297, DW_AT_accessibility(DW_ACCESS_public)
    2847              
    2848              $C$DW$298       .dwtag  DW_TAG_member
    2849                      .dwattr $C$DW$298, DW_AT_type(*$C$DW$T$29)
    2850                      .dwattr $C$DW$298, DW_AT_name("USER11")
    2851                      .dwattr $C$DW$298, DW_AT_TI_symbol_name("_USER11")
    2852                      .dwattr $C$DW$298, DW_AT_data_member_location[DW_OP_plus_uconst 0x5c]
    2853                      .dwattr $C$DW$298, DW_AT_accessibility(DW_ACCESS_public)
    2854              
    2855              $C$DW$299       .dwtag  DW_TAG_member
    2856                      .dwattr $C$DW$299, DW_AT_type(*$C$DW$T$29)
    2857                      .dwattr $C$DW$299, DW_AT_name("USER12")
    2858                      .dwattr $C$DW$299, DW_AT_TI_symbol_name("_USER12")
    2859                      .dwattr $C$DW$299, DW_AT_data_member_location[DW_OP_plus_uconst 0x5e]
    2860                      .dwattr $C$DW$299, DW_AT_accessibility(DW_ACCESS_public)
    2861              
    2862              $C$DW$300       .dwtag  DW_TAG_member
    2863                      .dwattr $C$DW$300, DW_AT_type(*$C$DW$T$29)
    2864                      .dwattr $C$DW$300, DW_AT_name("ADCINT1_HP")
    2865                      .dwattr $C$DW$300, DW_AT_TI_symbol_name("_ADCINT1_HP")
    2866                      .dwattr $C$DW$300, DW_AT_data_member_location[DW_OP_plus_uconst 0x60]
    2867                      .dwattr $C$DW$300, DW_AT_accessibility(DW_ACCESS_public)
    2868              
    2869              $C$DW$301       .dwtag  DW_TAG_member
TMS320C2000 Assembler PC v16.9.1 Wed Jan 04 15:50:42 2017

Tools Copyright (c) 1996-2015 Texas Instruments Incorporated
C:\Users\ROSSYE~1\AppData\Local\Temp\0152010                         PAGE   54

    2870                      .dwattr $C$DW$301, DW_AT_type(*$C$DW$T$29)
    2871                      .dwattr $C$DW$301, DW_AT_name("ADCINT2_HP")
    2872                      .dwattr $C$DW$301, DW_AT_TI_symbol_name("_ADCINT2_HP")
    2873                      .dwattr $C$DW$301, DW_AT_data_member_location[DW_OP_plus_uconst 0x62]
    2874                      .dwattr $C$DW$301, DW_AT_accessibility(DW_ACCESS_public)
    2875              
    2876              $C$DW$302       .dwtag  DW_TAG_member
    2877                      .dwattr $C$DW$302, DW_AT_type(*$C$DW$T$29)
    2878                      .dwattr $C$DW$302, DW_AT_name("rsvd1_3")
    2879                      .dwattr $C$DW$302, DW_AT_TI_symbol_name("_rsvd1_3")
    2880                      .dwattr $C$DW$302, DW_AT_data_member_location[DW_OP_plus_uconst 0x64]
    2881                      .dwattr $C$DW$302, DW_AT_accessibility(DW_ACCESS_public)
    2882              
    2883              $C$DW$303       .dwtag  DW_TAG_member
    2884                      .dwattr $C$DW$303, DW_AT_type(*$C$DW$T$29)
    2885                      .dwattr $C$DW$303, DW_AT_name("XINT1")
    2886                      .dwattr $C$DW$303, DW_AT_TI_symbol_name("_XINT1")
    2887                      .dwattr $C$DW$303, DW_AT_data_member_location[DW_OP_plus_uconst 0x66]
    2888                      .dwattr $C$DW$303, DW_AT_accessibility(DW_ACCESS_public)
    2889              
    2890              $C$DW$304       .dwtag  DW_TAG_member
    2891                      .dwattr $C$DW$304, DW_AT_type(*$C$DW$T$29)
    2892                      .dwattr $C$DW$304, DW_AT_name("XINT2")
    2893                      .dwattr $C$DW$304, DW_AT_TI_symbol_name("_XINT2")
    2894                      .dwattr $C$DW$304, DW_AT_data_member_location[DW_OP_plus_uconst 0x68]
    2895                      .dwattr $C$DW$304, DW_AT_accessibility(DW_ACCESS_public)
    2896              
    2897              $C$DW$305       .dwtag  DW_TAG_member
    2898                      .dwattr $C$DW$305, DW_AT_type(*$C$DW$T$29)
    2899                      .dwattr $C$DW$305, DW_AT_name("ADCINT9")
    2900                      .dwattr $C$DW$305, DW_AT_TI_symbol_name("_ADCINT9")
    2901                      .dwattr $C$DW$305, DW_AT_data_member_location[DW_OP_plus_uconst 0x6a]
    2902                      .dwattr $C$DW$305, DW_AT_accessibility(DW_ACCESS_public)
    2903              
    2904              $C$DW$306       .dwtag  DW_TAG_member
    2905                      .dwattr $C$DW$306, DW_AT_type(*$C$DW$T$29)
    2906                      .dwattr $C$DW$306, DW_AT_name("TINT0")
    2907                      .dwattr $C$DW$306, DW_AT_TI_symbol_name("_TINT0")
    2908                      .dwattr $C$DW$306, DW_AT_data_member_location[DW_OP_plus_uconst 0x6c]
    2909                      .dwattr $C$DW$306, DW_AT_accessibility(DW_ACCESS_public)
    2910              
    2911              $C$DW$307       .dwtag  DW_TAG_member
    2912                      .dwattr $C$DW$307, DW_AT_type(*$C$DW$T$29)
    2913                      .dwattr $C$DW$307, DW_AT_name("WAKEINT")
    2914                      .dwattr $C$DW$307, DW_AT_TI_symbol_name("_WAKEINT")
    2915                      .dwattr $C$DW$307, DW_AT_data_member_location[DW_OP_plus_uconst 0x6e]
    2916                      .dwattr $C$DW$307, DW_AT_accessibility(DW_ACCESS_public)
    2917              
    2918              $C$DW$308       .dwtag  DW_TAG_member
    2919                      .dwattr $C$DW$308, DW_AT_type(*$C$DW$T$29)
    2920                      .dwattr $C$DW$308, DW_AT_name("EPWM1_TZINT")
    2921                      .dwattr $C$DW$308, DW_AT_TI_symbol_name("_EPWM1_TZINT")
    2922                      .dwattr $C$DW$308, DW_AT_data_member_location[DW_OP_plus_uconst 0x70]
    2923                      .dwattr $C$DW$308, DW_AT_accessibility(DW_ACCESS_public)
    2924              
TMS320C2000 Assembler PC v16.9.1 Wed Jan 04 15:50:42 2017

Tools Copyright (c) 1996-2015 Texas Instruments Incorporated
C:\Users\ROSSYE~1\AppData\Local\Temp\0152010                         PAGE   55

    2925              $C$DW$309       .dwtag  DW_TAG_member
    2926                      .dwattr $C$DW$309, DW_AT_type(*$C$DW$T$29)
    2927                      .dwattr $C$DW$309, DW_AT_name("EPWM2_TZINT")
    2928                      .dwattr $C$DW$309, DW_AT_TI_symbol_name("_EPWM2_TZINT")
    2929                      .dwattr $C$DW$309, DW_AT_data_member_location[DW_OP_plus_uconst 0x72]
    2930                      .dwattr $C$DW$309, DW_AT_accessibility(DW_ACCESS_public)
    2931              
    2932              $C$DW$310       .dwtag  DW_TAG_member
    2933                      .dwattr $C$DW$310, DW_AT_type(*$C$DW$T$29)
    2934                      .dwattr $C$DW$310, DW_AT_name("EPWM3_TZINT")
    2935                      .dwattr $C$DW$310, DW_AT_TI_symbol_name("_EPWM3_TZINT")
    2936                      .dwattr $C$DW$310, DW_AT_data_member_location[DW_OP_plus_uconst 0x74]
    2937                      .dwattr $C$DW$310, DW_AT_accessibility(DW_ACCESS_public)
    2938              
    2939              $C$DW$311       .dwtag  DW_TAG_member
    2940                      .dwattr $C$DW$311, DW_AT_type(*$C$DW$T$29)
    2941                      .dwattr $C$DW$311, DW_AT_name("EPWM4_TZINT")
    2942                      .dwattr $C$DW$311, DW_AT_TI_symbol_name("_EPWM4_TZINT")
    2943                      .dwattr $C$DW$311, DW_AT_data_member_location[DW_OP_plus_uconst 0x76]
    2944                      .dwattr $C$DW$311, DW_AT_accessibility(DW_ACCESS_public)
    2945              
    2946              $C$DW$312       .dwtag  DW_TAG_member
    2947                      .dwattr $C$DW$312, DW_AT_type(*$C$DW$T$29)
    2948                      .dwattr $C$DW$312, DW_AT_name("rsvd2_5")
    2949                      .dwattr $C$DW$312, DW_AT_TI_symbol_name("_rsvd2_5")
    2950                      .dwattr $C$DW$312, DW_AT_data_member_location[DW_OP_plus_uconst 0x78]
    2951                      .dwattr $C$DW$312, DW_AT_accessibility(DW_ACCESS_public)
    2952              
    2953              $C$DW$313       .dwtag  DW_TAG_member
    2954                      .dwattr $C$DW$313, DW_AT_type(*$C$DW$T$29)
    2955                      .dwattr $C$DW$313, DW_AT_name("rsvd2_6")
    2956                      .dwattr $C$DW$313, DW_AT_TI_symbol_name("_rsvd2_6")
    2957                      .dwattr $C$DW$313, DW_AT_data_member_location[DW_OP_plus_uconst 0x7a]
    2958                      .dwattr $C$DW$313, DW_AT_accessibility(DW_ACCESS_public)
    2959              
    2960              $C$DW$314       .dwtag  DW_TAG_member
    2961                      .dwattr $C$DW$314, DW_AT_type(*$C$DW$T$29)
    2962                      .dwattr $C$DW$314, DW_AT_name("rsvd2_7")
    2963                      .dwattr $C$DW$314, DW_AT_TI_symbol_name("_rsvd2_7")
    2964                      .dwattr $C$DW$314, DW_AT_data_member_location[DW_OP_plus_uconst 0x7c]
    2965                      .dwattr $C$DW$314, DW_AT_accessibility(DW_ACCESS_public)
    2966              
    2967              $C$DW$315       .dwtag  DW_TAG_member
    2968                      .dwattr $C$DW$315, DW_AT_type(*$C$DW$T$29)
    2969                      .dwattr $C$DW$315, DW_AT_name("rsvd2_8")
    2970                      .dwattr $C$DW$315, DW_AT_TI_symbol_name("_rsvd2_8")
    2971                      .dwattr $C$DW$315, DW_AT_data_member_location[DW_OP_plus_uconst 0x7e]
    2972                      .dwattr $C$DW$315, DW_AT_accessibility(DW_ACCESS_public)
    2973              
    2974              $C$DW$316       .dwtag  DW_TAG_member
    2975                      .dwattr $C$DW$316, DW_AT_type(*$C$DW$T$29)
    2976                      .dwattr $C$DW$316, DW_AT_name("EPWM1_INT")
    2977                      .dwattr $C$DW$316, DW_AT_TI_symbol_name("_EPWM1_INT")
    2978                      .dwattr $C$DW$316, DW_AT_data_member_location[DW_OP_plus_uconst 0x80]
    2979                      .dwattr $C$DW$316, DW_AT_accessibility(DW_ACCESS_public)
TMS320C2000 Assembler PC v16.9.1 Wed Jan 04 15:50:42 2017

Tools Copyright (c) 1996-2015 Texas Instruments Incorporated
C:\Users\ROSSYE~1\AppData\Local\Temp\0152010                         PAGE   56

    2980              
    2981              $C$DW$317       .dwtag  DW_TAG_member
    2982                      .dwattr $C$DW$317, DW_AT_type(*$C$DW$T$29)
    2983                      .dwattr $C$DW$317, DW_AT_name("EPWM2_INT")
    2984                      .dwattr $C$DW$317, DW_AT_TI_symbol_name("_EPWM2_INT")
    2985                      .dwattr $C$DW$317, DW_AT_data_member_location[DW_OP_plus_uconst 0x82]
    2986                      .dwattr $C$DW$317, DW_AT_accessibility(DW_ACCESS_public)
    2987              
    2988              $C$DW$318       .dwtag  DW_TAG_member
    2989                      .dwattr $C$DW$318, DW_AT_type(*$C$DW$T$29)
    2990                      .dwattr $C$DW$318, DW_AT_name("EPWM3_INT")
    2991                      .dwattr $C$DW$318, DW_AT_TI_symbol_name("_EPWM3_INT")
    2992                      .dwattr $C$DW$318, DW_AT_data_member_location[DW_OP_plus_uconst 0x84]
    2993                      .dwattr $C$DW$318, DW_AT_accessibility(DW_ACCESS_public)
    2994              
    2995              $C$DW$319       .dwtag  DW_TAG_member
    2996                      .dwattr $C$DW$319, DW_AT_type(*$C$DW$T$29)
    2997                      .dwattr $C$DW$319, DW_AT_name("EPWM4_INT")
    2998                      .dwattr $C$DW$319, DW_AT_TI_symbol_name("_EPWM4_INT")
    2999                      .dwattr $C$DW$319, DW_AT_data_member_location[DW_OP_plus_uconst 0x86]
    3000                      .dwattr $C$DW$319, DW_AT_accessibility(DW_ACCESS_public)
    3001              
    3002              $C$DW$320       .dwtag  DW_TAG_member
    3003                      .dwattr $C$DW$320, DW_AT_type(*$C$DW$T$29)
    3004                      .dwattr $C$DW$320, DW_AT_name("rsvd3_5")
    3005                      .dwattr $C$DW$320, DW_AT_TI_symbol_name("_rsvd3_5")
    3006                      .dwattr $C$DW$320, DW_AT_data_member_location[DW_OP_plus_uconst 0x88]
    3007                      .dwattr $C$DW$320, DW_AT_accessibility(DW_ACCESS_public)
    3008              
    3009              $C$DW$321       .dwtag  DW_TAG_member
    3010                      .dwattr $C$DW$321, DW_AT_type(*$C$DW$T$29)
    3011                      .dwattr $C$DW$321, DW_AT_name("rsvd3_6")
    3012                      .dwattr $C$DW$321, DW_AT_TI_symbol_name("_rsvd3_6")
    3013                      .dwattr $C$DW$321, DW_AT_data_member_location[DW_OP_plus_uconst 0x8a]
    3014                      .dwattr $C$DW$321, DW_AT_accessibility(DW_ACCESS_public)
    3015              
    3016              $C$DW$322       .dwtag  DW_TAG_member
    3017                      .dwattr $C$DW$322, DW_AT_type(*$C$DW$T$29)
    3018                      .dwattr $C$DW$322, DW_AT_name("rsvd3_7")
    3019                      .dwattr $C$DW$322, DW_AT_TI_symbol_name("_rsvd3_7")
    3020                      .dwattr $C$DW$322, DW_AT_data_member_location[DW_OP_plus_uconst 0x8c]
    3021                      .dwattr $C$DW$322, DW_AT_accessibility(DW_ACCESS_public)
    3022              
    3023              $C$DW$323       .dwtag  DW_TAG_member
    3024                      .dwattr $C$DW$323, DW_AT_type(*$C$DW$T$29)
    3025                      .dwattr $C$DW$323, DW_AT_name("rsvd3_8")
    3026                      .dwattr $C$DW$323, DW_AT_TI_symbol_name("_rsvd3_8")
    3027                      .dwattr $C$DW$323, DW_AT_data_member_location[DW_OP_plus_uconst 0x8e]
    3028                      .dwattr $C$DW$323, DW_AT_accessibility(DW_ACCESS_public)
    3029              
    3030              $C$DW$324       .dwtag  DW_TAG_member
    3031                      .dwattr $C$DW$324, DW_AT_type(*$C$DW$T$29)
    3032                      .dwattr $C$DW$324, DW_AT_name("ECAP1_INT")
    3033                      .dwattr $C$DW$324, DW_AT_TI_symbol_name("_ECAP1_INT")
    3034                      .dwattr $C$DW$324, DW_AT_data_member_location[DW_OP_plus_uconst 0x90]
TMS320C2000 Assembler PC v16.9.1 Wed Jan 04 15:50:42 2017

Tools Copyright (c) 1996-2015 Texas Instruments Incorporated
C:\Users\ROSSYE~1\AppData\Local\Temp\0152010                         PAGE   57

    3035                      .dwattr $C$DW$324, DW_AT_accessibility(DW_ACCESS_public)
    3036              
    3037              $C$DW$325       .dwtag  DW_TAG_member
    3038                      .dwattr $C$DW$325, DW_AT_type(*$C$DW$T$29)
    3039                      .dwattr $C$DW$325, DW_AT_name("rsvd4_2")
    3040                      .dwattr $C$DW$325, DW_AT_TI_symbol_name("_rsvd4_2")
    3041                      .dwattr $C$DW$325, DW_AT_data_member_location[DW_OP_plus_uconst 0x92]
    3042                      .dwattr $C$DW$325, DW_AT_accessibility(DW_ACCESS_public)
    3043              
    3044              $C$DW$326       .dwtag  DW_TAG_member
    3045                      .dwattr $C$DW$326, DW_AT_type(*$C$DW$T$29)
    3046                      .dwattr $C$DW$326, DW_AT_name("rsvd4_3")
    3047                      .dwattr $C$DW$326, DW_AT_TI_symbol_name("_rsvd4_3")
    3048                      .dwattr $C$DW$326, DW_AT_data_member_location[DW_OP_plus_uconst 0x94]
    3049                      .dwattr $C$DW$326, DW_AT_accessibility(DW_ACCESS_public)
    3050              
    3051              $C$DW$327       .dwtag  DW_TAG_member
    3052                      .dwattr $C$DW$327, DW_AT_type(*$C$DW$T$29)
    3053                      .dwattr $C$DW$327, DW_AT_name("rsvd4_4")
    3054                      .dwattr $C$DW$327, DW_AT_TI_symbol_name("_rsvd4_4")
    3055                      .dwattr $C$DW$327, DW_AT_data_member_location[DW_OP_plus_uconst 0x96]
    3056                      .dwattr $C$DW$327, DW_AT_accessibility(DW_ACCESS_public)
    3057              
    3058              $C$DW$328       .dwtag  DW_TAG_member
    3059                      .dwattr $C$DW$328, DW_AT_type(*$C$DW$T$29)
    3060                      .dwattr $C$DW$328, DW_AT_name("rsvd4_5")
    3061                      .dwattr $C$DW$328, DW_AT_TI_symbol_name("_rsvd4_5")
    3062                      .dwattr $C$DW$328, DW_AT_data_member_location[DW_OP_plus_uconst 0x98]
    3063                      .dwattr $C$DW$328, DW_AT_accessibility(DW_ACCESS_public)
    3064              
    3065              $C$DW$329       .dwtag  DW_TAG_member
    3066                      .dwattr $C$DW$329, DW_AT_type(*$C$DW$T$29)
    3067                      .dwattr $C$DW$329, DW_AT_name("rsvd4_6")
    3068                      .dwattr $C$DW$329, DW_AT_TI_symbol_name("_rsvd4_6")
    3069                      .dwattr $C$DW$329, DW_AT_data_member_location[DW_OP_plus_uconst 0x9a]
    3070                      .dwattr $C$DW$329, DW_AT_accessibility(DW_ACCESS_public)
    3071              
    3072              $C$DW$330       .dwtag  DW_TAG_member
    3073                      .dwattr $C$DW$330, DW_AT_type(*$C$DW$T$29)
    3074                      .dwattr $C$DW$330, DW_AT_name("rsvd4_7")
    3075                      .dwattr $C$DW$330, DW_AT_TI_symbol_name("_rsvd4_7")
    3076                      .dwattr $C$DW$330, DW_AT_data_member_location[DW_OP_plus_uconst 0x9c]
    3077                      .dwattr $C$DW$330, DW_AT_accessibility(DW_ACCESS_public)
    3078              
    3079              $C$DW$331       .dwtag  DW_TAG_member
    3080                      .dwattr $C$DW$331, DW_AT_type(*$C$DW$T$29)
    3081                      .dwattr $C$DW$331, DW_AT_name("rsvd4_8")
    3082                      .dwattr $C$DW$331, DW_AT_TI_symbol_name("_rsvd4_8")
    3083                      .dwattr $C$DW$331, DW_AT_data_member_location[DW_OP_plus_uconst 0x9e]
    3084                      .dwattr $C$DW$331, DW_AT_accessibility(DW_ACCESS_public)
    3085              
    3086              $C$DW$332       .dwtag  DW_TAG_member
    3087                      .dwattr $C$DW$332, DW_AT_type(*$C$DW$T$29)
    3088                      .dwattr $C$DW$332, DW_AT_name("rsvd5_1")
    3089                      .dwattr $C$DW$332, DW_AT_TI_symbol_name("_rsvd5_1")
TMS320C2000 Assembler PC v16.9.1 Wed Jan 04 15:50:42 2017

Tools Copyright (c) 1996-2015 Texas Instruments Incorporated
C:\Users\ROSSYE~1\AppData\Local\Temp\0152010                         PAGE   58

    3090                      .dwattr $C$DW$332, DW_AT_data_member_location[DW_OP_plus_uconst 0xa0]
    3091                      .dwattr $C$DW$332, DW_AT_accessibility(DW_ACCESS_public)
    3092              
    3093              $C$DW$333       .dwtag  DW_TAG_member
    3094                      .dwattr $C$DW$333, DW_AT_type(*$C$DW$T$29)
    3095                      .dwattr $C$DW$333, DW_AT_name("rsvd5_2")
    3096                      .dwattr $C$DW$333, DW_AT_TI_symbol_name("_rsvd5_2")
    3097                      .dwattr $C$DW$333, DW_AT_data_member_location[DW_OP_plus_uconst 0xa2]
    3098                      .dwattr $C$DW$333, DW_AT_accessibility(DW_ACCESS_public)
    3099              
    3100              $C$DW$334       .dwtag  DW_TAG_member
    3101                      .dwattr $C$DW$334, DW_AT_type(*$C$DW$T$29)
    3102                      .dwattr $C$DW$334, DW_AT_name("rsvd5_3")
    3103                      .dwattr $C$DW$334, DW_AT_TI_symbol_name("_rsvd5_3")
    3104                      .dwattr $C$DW$334, DW_AT_data_member_location[DW_OP_plus_uconst 0xa4]
    3105                      .dwattr $C$DW$334, DW_AT_accessibility(DW_ACCESS_public)
    3106              
    3107              $C$DW$335       .dwtag  DW_TAG_member
    3108                      .dwattr $C$DW$335, DW_AT_type(*$C$DW$T$29)
    3109                      .dwattr $C$DW$335, DW_AT_name("rsvd5_4")
    3110                      .dwattr $C$DW$335, DW_AT_TI_symbol_name("_rsvd5_4")
    3111                      .dwattr $C$DW$335, DW_AT_data_member_location[DW_OP_plus_uconst 0xa6]
    3112                      .dwattr $C$DW$335, DW_AT_accessibility(DW_ACCESS_public)
    3113              
    3114              $C$DW$336       .dwtag  DW_TAG_member
    3115                      .dwattr $C$DW$336, DW_AT_type(*$C$DW$T$29)
    3116                      .dwattr $C$DW$336, DW_AT_name("rsvd5_5")
    3117                      .dwattr $C$DW$336, DW_AT_TI_symbol_name("_rsvd5_5")
    3118                      .dwattr $C$DW$336, DW_AT_data_member_location[DW_OP_plus_uconst 0xa8]
    3119                      .dwattr $C$DW$336, DW_AT_accessibility(DW_ACCESS_public)
    3120              
    3121              $C$DW$337       .dwtag  DW_TAG_member
    3122                      .dwattr $C$DW$337, DW_AT_type(*$C$DW$T$29)
    3123                      .dwattr $C$DW$337, DW_AT_name("rsvd5_6")
    3124                      .dwattr $C$DW$337, DW_AT_TI_symbol_name("_rsvd5_6")
    3125                      .dwattr $C$DW$337, DW_AT_data_member_location[DW_OP_plus_uconst 0xaa]
    3126                      .dwattr $C$DW$337, DW_AT_accessibility(DW_ACCESS_public)
    3127              
    3128              $C$DW$338       .dwtag  DW_TAG_member
    3129                      .dwattr $C$DW$338, DW_AT_type(*$C$DW$T$29)
    3130                      .dwattr $C$DW$338, DW_AT_name("rsvd5_7")
    3131                      .dwattr $C$DW$338, DW_AT_TI_symbol_name("_rsvd5_7")
    3132                      .dwattr $C$DW$338, DW_AT_data_member_location[DW_OP_plus_uconst 0xac]
    3133                      .dwattr $C$DW$338, DW_AT_accessibility(DW_ACCESS_public)
    3134              
    3135              $C$DW$339       .dwtag  DW_TAG_member
    3136                      .dwattr $C$DW$339, DW_AT_type(*$C$DW$T$29)
    3137                      .dwattr $C$DW$339, DW_AT_name("rsvd5_8")
    3138                      .dwattr $C$DW$339, DW_AT_TI_symbol_name("_rsvd5_8")
    3139                      .dwattr $C$DW$339, DW_AT_data_member_location[DW_OP_plus_uconst 0xae]
    3140                      .dwattr $C$DW$339, DW_AT_accessibility(DW_ACCESS_public)
    3141              
    3142              $C$DW$340       .dwtag  DW_TAG_member
    3143                      .dwattr $C$DW$340, DW_AT_type(*$C$DW$T$29)
    3144                      .dwattr $C$DW$340, DW_AT_name("SPIRXINTA")
TMS320C2000 Assembler PC v16.9.1 Wed Jan 04 15:50:42 2017

Tools Copyright (c) 1996-2015 Texas Instruments Incorporated
C:\Users\ROSSYE~1\AppData\Local\Temp\0152010                         PAGE   59

    3145                      .dwattr $C$DW$340, DW_AT_TI_symbol_name("_SPIRXINTA")
    3146                      .dwattr $C$DW$340, DW_AT_data_member_location[DW_OP_plus_uconst 0xb0]
    3147                      .dwattr $C$DW$340, DW_AT_accessibility(DW_ACCESS_public)
    3148              
    3149              $C$DW$341       .dwtag  DW_TAG_member
    3150                      .dwattr $C$DW$341, DW_AT_type(*$C$DW$T$29)
    3151                      .dwattr $C$DW$341, DW_AT_name("SPITXINTA")
    3152                      .dwattr $C$DW$341, DW_AT_TI_symbol_name("_SPITXINTA")
    3153                      .dwattr $C$DW$341, DW_AT_data_member_location[DW_OP_plus_uconst 0xb2]
    3154                      .dwattr $C$DW$341, DW_AT_accessibility(DW_ACCESS_public)
    3155              
    3156              $C$DW$342       .dwtag  DW_TAG_member
    3157                      .dwattr $C$DW$342, DW_AT_type(*$C$DW$T$29)
    3158                      .dwattr $C$DW$342, DW_AT_name("rsvd6_3")
    3159                      .dwattr $C$DW$342, DW_AT_TI_symbol_name("_rsvd6_3")
    3160                      .dwattr $C$DW$342, DW_AT_data_member_location[DW_OP_plus_uconst 0xb4]
    3161                      .dwattr $C$DW$342, DW_AT_accessibility(DW_ACCESS_public)
    3162              
    3163              $C$DW$343       .dwtag  DW_TAG_member
    3164                      .dwattr $C$DW$343, DW_AT_type(*$C$DW$T$29)
    3165                      .dwattr $C$DW$343, DW_AT_name("rsvd6_4")
    3166                      .dwattr $C$DW$343, DW_AT_TI_symbol_name("_rsvd6_4")
    3167                      .dwattr $C$DW$343, DW_AT_data_member_location[DW_OP_plus_uconst 0xb6]
    3168                      .dwattr $C$DW$343, DW_AT_accessibility(DW_ACCESS_public)
    3169              
    3170              $C$DW$344       .dwtag  DW_TAG_member
    3171                      .dwattr $C$DW$344, DW_AT_type(*$C$DW$T$29)
    3172                      .dwattr $C$DW$344, DW_AT_name("rsvd6_5")
    3173                      .dwattr $C$DW$344, DW_AT_TI_symbol_name("_rsvd6_5")
    3174                      .dwattr $C$DW$344, DW_AT_data_member_location[DW_OP_plus_uconst 0xb8]
    3175                      .dwattr $C$DW$344, DW_AT_accessibility(DW_ACCESS_public)
    3176              
    3177              $C$DW$345       .dwtag  DW_TAG_member
    3178                      .dwattr $C$DW$345, DW_AT_type(*$C$DW$T$29)
    3179                      .dwattr $C$DW$345, DW_AT_name("rsvd6_6")
    3180                      .dwattr $C$DW$345, DW_AT_TI_symbol_name("_rsvd6_6")
    3181                      .dwattr $C$DW$345, DW_AT_data_member_location[DW_OP_plus_uconst 0xba]
    3182                      .dwattr $C$DW$345, DW_AT_accessibility(DW_ACCESS_public)
    3183              
    3184              $C$DW$346       .dwtag  DW_TAG_member
    3185                      .dwattr $C$DW$346, DW_AT_type(*$C$DW$T$29)
    3186                      .dwattr $C$DW$346, DW_AT_name("rsvd6_7")
    3187                      .dwattr $C$DW$346, DW_AT_TI_symbol_name("_rsvd6_7")
    3188                      .dwattr $C$DW$346, DW_AT_data_member_location[DW_OP_plus_uconst 0xbc]
    3189                      .dwattr $C$DW$346, DW_AT_accessibility(DW_ACCESS_public)
    3190              
    3191              $C$DW$347       .dwtag  DW_TAG_member
    3192                      .dwattr $C$DW$347, DW_AT_type(*$C$DW$T$29)
    3193                      .dwattr $C$DW$347, DW_AT_name("rsvd6_8")
    3194                      .dwattr $C$DW$347, DW_AT_TI_symbol_name("_rsvd6_8")
    3195                      .dwattr $C$DW$347, DW_AT_data_member_location[DW_OP_plus_uconst 0xbe]
    3196                      .dwattr $C$DW$347, DW_AT_accessibility(DW_ACCESS_public)
    3197              
    3198              $C$DW$348       .dwtag  DW_TAG_member
    3199                      .dwattr $C$DW$348, DW_AT_type(*$C$DW$T$29)
TMS320C2000 Assembler PC v16.9.1 Wed Jan 04 15:50:42 2017

Tools Copyright (c) 1996-2015 Texas Instruments Incorporated
C:\Users\ROSSYE~1\AppData\Local\Temp\0152010                         PAGE   60

    3200                      .dwattr $C$DW$348, DW_AT_name("rsvd7_1")
    3201                      .dwattr $C$DW$348, DW_AT_TI_symbol_name("_rsvd7_1")
    3202                      .dwattr $C$DW$348, DW_AT_data_member_location[DW_OP_plus_uconst 0xc0]
    3203                      .dwattr $C$DW$348, DW_AT_accessibility(DW_ACCESS_public)
    3204              
    3205              $C$DW$349       .dwtag  DW_TAG_member
    3206                      .dwattr $C$DW$349, DW_AT_type(*$C$DW$T$29)
    3207                      .dwattr $C$DW$349, DW_AT_name("rsvd7_2")
    3208                      .dwattr $C$DW$349, DW_AT_TI_symbol_name("_rsvd7_2")
    3209                      .dwattr $C$DW$349, DW_AT_data_member_location[DW_OP_plus_uconst 0xc2]
    3210                      .dwattr $C$DW$349, DW_AT_accessibility(DW_ACCESS_public)
    3211              
    3212              $C$DW$350       .dwtag  DW_TAG_member
    3213                      .dwattr $C$DW$350, DW_AT_type(*$C$DW$T$29)
    3214                      .dwattr $C$DW$350, DW_AT_name("rsvd7_3")
    3215                      .dwattr $C$DW$350, DW_AT_TI_symbol_name("_rsvd7_3")
    3216                      .dwattr $C$DW$350, DW_AT_data_member_location[DW_OP_plus_uconst 0xc4]
    3217                      .dwattr $C$DW$350, DW_AT_accessibility(DW_ACCESS_public)
    3218              
    3219              $C$DW$351       .dwtag  DW_TAG_member
    3220                      .dwattr $C$DW$351, DW_AT_type(*$C$DW$T$29)
    3221                      .dwattr $C$DW$351, DW_AT_name("rsvd7_4")
    3222                      .dwattr $C$DW$351, DW_AT_TI_symbol_name("_rsvd7_4")
    3223                      .dwattr $C$DW$351, DW_AT_data_member_location[DW_OP_plus_uconst 0xc6]
    3224                      .dwattr $C$DW$351, DW_AT_accessibility(DW_ACCESS_public)
    3225              
    3226              $C$DW$352       .dwtag  DW_TAG_member
    3227                      .dwattr $C$DW$352, DW_AT_type(*$C$DW$T$29)
    3228                      .dwattr $C$DW$352, DW_AT_name("rsvd7_5")
    3229                      .dwattr $C$DW$352, DW_AT_TI_symbol_name("_rsvd7_5")
    3230                      .dwattr $C$DW$352, DW_AT_data_member_location[DW_OP_plus_uconst 0xc8]
    3231                      .dwattr $C$DW$352, DW_AT_accessibility(DW_ACCESS_public)
    3232              
    3233              $C$DW$353       .dwtag  DW_TAG_member
    3234                      .dwattr $C$DW$353, DW_AT_type(*$C$DW$T$29)
    3235                      .dwattr $C$DW$353, DW_AT_name("rsvd7_6")
    3236                      .dwattr $C$DW$353, DW_AT_TI_symbol_name("_rsvd7_6")
    3237                      .dwattr $C$DW$353, DW_AT_data_member_location[DW_OP_plus_uconst 0xca]
    3238                      .dwattr $C$DW$353, DW_AT_accessibility(DW_ACCESS_public)
    3239              
    3240              $C$DW$354       .dwtag  DW_TAG_member
    3241                      .dwattr $C$DW$354, DW_AT_type(*$C$DW$T$29)
    3242                      .dwattr $C$DW$354, DW_AT_name("rsvd7_7")
    3243                      .dwattr $C$DW$354, DW_AT_TI_symbol_name("_rsvd7_7")
    3244                      .dwattr $C$DW$354, DW_AT_data_member_location[DW_OP_plus_uconst 0xcc]
    3245                      .dwattr $C$DW$354, DW_AT_accessibility(DW_ACCESS_public)
    3246              
    3247              $C$DW$355       .dwtag  DW_TAG_member
    3248                      .dwattr $C$DW$355, DW_AT_type(*$C$DW$T$29)
    3249                      .dwattr $C$DW$355, DW_AT_name("rsvd7_8")
    3250                      .dwattr $C$DW$355, DW_AT_TI_symbol_name("_rsvd7_8")
    3251                      .dwattr $C$DW$355, DW_AT_data_member_location[DW_OP_plus_uconst 0xce]
    3252                      .dwattr $C$DW$355, DW_AT_accessibility(DW_ACCESS_public)
    3253              
    3254              $C$DW$356       .dwtag  DW_TAG_member
TMS320C2000 Assembler PC v16.9.1 Wed Jan 04 15:50:42 2017

Tools Copyright (c) 1996-2015 Texas Instruments Incorporated
C:\Users\ROSSYE~1\AppData\Local\Temp\0152010                         PAGE   61

    3255                      .dwattr $C$DW$356, DW_AT_type(*$C$DW$T$29)
    3256                      .dwattr $C$DW$356, DW_AT_name("I2CINT1A")
    3257                      .dwattr $C$DW$356, DW_AT_TI_symbol_name("_I2CINT1A")
    3258                      .dwattr $C$DW$356, DW_AT_data_member_location[DW_OP_plus_uconst 0xd0]
    3259                      .dwattr $C$DW$356, DW_AT_accessibility(DW_ACCESS_public)
    3260              
    3261              $C$DW$357       .dwtag  DW_TAG_member
    3262                      .dwattr $C$DW$357, DW_AT_type(*$C$DW$T$29)
    3263                      .dwattr $C$DW$357, DW_AT_name("I2CINT2A")
    3264                      .dwattr $C$DW$357, DW_AT_TI_symbol_name("_I2CINT2A")
    3265                      .dwattr $C$DW$357, DW_AT_data_member_location[DW_OP_plus_uconst 0xd2]
    3266                      .dwattr $C$DW$357, DW_AT_accessibility(DW_ACCESS_public)
    3267              
    3268              $C$DW$358       .dwtag  DW_TAG_member
    3269                      .dwattr $C$DW$358, DW_AT_type(*$C$DW$T$29)
    3270                      .dwattr $C$DW$358, DW_AT_name("rsvd8_3")
    3271                      .dwattr $C$DW$358, DW_AT_TI_symbol_name("_rsvd8_3")
    3272                      .dwattr $C$DW$358, DW_AT_data_member_location[DW_OP_plus_uconst 0xd4]
    3273                      .dwattr $C$DW$358, DW_AT_accessibility(DW_ACCESS_public)
    3274              
    3275              $C$DW$359       .dwtag  DW_TAG_member
    3276                      .dwattr $C$DW$359, DW_AT_type(*$C$DW$T$29)
    3277                      .dwattr $C$DW$359, DW_AT_name("rsvd8_4")
    3278                      .dwattr $C$DW$359, DW_AT_TI_symbol_name("_rsvd8_4")
    3279                      .dwattr $C$DW$359, DW_AT_data_member_location[DW_OP_plus_uconst 0xd6]
    3280                      .dwattr $C$DW$359, DW_AT_accessibility(DW_ACCESS_public)
    3281              
    3282              $C$DW$360       .dwtag  DW_TAG_member
    3283                      .dwattr $C$DW$360, DW_AT_type(*$C$DW$T$29)
    3284                      .dwattr $C$DW$360, DW_AT_name("rsvd8_5")
    3285                      .dwattr $C$DW$360, DW_AT_TI_symbol_name("_rsvd8_5")
    3286                      .dwattr $C$DW$360, DW_AT_data_member_location[DW_OP_plus_uconst 0xd8]
    3287                      .dwattr $C$DW$360, DW_AT_accessibility(DW_ACCESS_public)
    3288              
    3289              $C$DW$361       .dwtag  DW_TAG_member
    3290                      .dwattr $C$DW$361, DW_AT_type(*$C$DW$T$29)
    3291                      .dwattr $C$DW$361, DW_AT_name("rsvd8_6")
    3292                      .dwattr $C$DW$361, DW_AT_TI_symbol_name("_rsvd8_6")
    3293                      .dwattr $C$DW$361, DW_AT_data_member_location[DW_OP_plus_uconst 0xda]
    3294                      .dwattr $C$DW$361, DW_AT_accessibility(DW_ACCESS_public)
    3295              
    3296              $C$DW$362       .dwtag  DW_TAG_member
    3297                      .dwattr $C$DW$362, DW_AT_type(*$C$DW$T$29)
    3298                      .dwattr $C$DW$362, DW_AT_name("rsvd8_7")
    3299                      .dwattr $C$DW$362, DW_AT_TI_symbol_name("_rsvd8_7")
    3300                      .dwattr $C$DW$362, DW_AT_data_member_location[DW_OP_plus_uconst 0xdc]
    3301                      .dwattr $C$DW$362, DW_AT_accessibility(DW_ACCESS_public)
    3302              
    3303              $C$DW$363       .dwtag  DW_TAG_member
    3304                      .dwattr $C$DW$363, DW_AT_type(*$C$DW$T$29)
    3305                      .dwattr $C$DW$363, DW_AT_name("rsvd8_8")
    3306                      .dwattr $C$DW$363, DW_AT_TI_symbol_name("_rsvd8_8")
    3307                      .dwattr $C$DW$363, DW_AT_data_member_location[DW_OP_plus_uconst 0xde]
    3308                      .dwattr $C$DW$363, DW_AT_accessibility(DW_ACCESS_public)
    3309              
TMS320C2000 Assembler PC v16.9.1 Wed Jan 04 15:50:42 2017

Tools Copyright (c) 1996-2015 Texas Instruments Incorporated
C:\Users\ROSSYE~1\AppData\Local\Temp\0152010                         PAGE   62

    3310              $C$DW$364       .dwtag  DW_TAG_member
    3311                      .dwattr $C$DW$364, DW_AT_type(*$C$DW$T$29)
    3312                      .dwattr $C$DW$364, DW_AT_name("SCIRXINTA")
    3313                      .dwattr $C$DW$364, DW_AT_TI_symbol_name("_SCIRXINTA")
    3314                      .dwattr $C$DW$364, DW_AT_data_member_location[DW_OP_plus_uconst 0xe0]
    3315                      .dwattr $C$DW$364, DW_AT_accessibility(DW_ACCESS_public)
    3316              
    3317              $C$DW$365       .dwtag  DW_TAG_member
    3318                      .dwattr $C$DW$365, DW_AT_type(*$C$DW$T$29)
    3319                      .dwattr $C$DW$365, DW_AT_name("SCITXINTA")
    3320                      .dwattr $C$DW$365, DW_AT_TI_symbol_name("_SCITXINTA")
    3321                      .dwattr $C$DW$365, DW_AT_data_member_location[DW_OP_plus_uconst 0xe2]
    3322                      .dwattr $C$DW$365, DW_AT_accessibility(DW_ACCESS_public)
    3323              
    3324              $C$DW$366       .dwtag  DW_TAG_member
    3325                      .dwattr $C$DW$366, DW_AT_type(*$C$DW$T$29)
    3326                      .dwattr $C$DW$366, DW_AT_name("rsvd9_3")
    3327                      .dwattr $C$DW$366, DW_AT_TI_symbol_name("_rsvd9_3")
    3328                      .dwattr $C$DW$366, DW_AT_data_member_location[DW_OP_plus_uconst 0xe4]
    3329                      .dwattr $C$DW$366, DW_AT_accessibility(DW_ACCESS_public)
    3330              
    3331              $C$DW$367       .dwtag  DW_TAG_member
    3332                      .dwattr $C$DW$367, DW_AT_type(*$C$DW$T$29)
    3333                      .dwattr $C$DW$367, DW_AT_name("rsvd9_4")
    3334                      .dwattr $C$DW$367, DW_AT_TI_symbol_name("_rsvd9_4")
    3335                      .dwattr $C$DW$367, DW_AT_data_member_location[DW_OP_plus_uconst 0xe6]
    3336                      .dwattr $C$DW$367, DW_AT_accessibility(DW_ACCESS_public)
    3337              
    3338              $C$DW$368       .dwtag  DW_TAG_member
    3339                      .dwattr $C$DW$368, DW_AT_type(*$C$DW$T$29)
    3340                      .dwattr $C$DW$368, DW_AT_name("rsvd9_5")
    3341                      .dwattr $C$DW$368, DW_AT_TI_symbol_name("_rsvd9_5")
    3342                      .dwattr $C$DW$368, DW_AT_data_member_location[DW_OP_plus_uconst 0xe8]
    3343                      .dwattr $C$DW$368, DW_AT_accessibility(DW_ACCESS_public)
    3344              
    3345              $C$DW$369       .dwtag  DW_TAG_member
    3346                      .dwattr $C$DW$369, DW_AT_type(*$C$DW$T$29)
    3347                      .dwattr $C$DW$369, DW_AT_name("rsvd9_6")
    3348                      .dwattr $C$DW$369, DW_AT_TI_symbol_name("_rsvd9_6")
    3349                      .dwattr $C$DW$369, DW_AT_data_member_location[DW_OP_plus_uconst 0xea]
    3350                      .dwattr $C$DW$369, DW_AT_accessibility(DW_ACCESS_public)
    3351              
    3352              $C$DW$370       .dwtag  DW_TAG_member
    3353                      .dwattr $C$DW$370, DW_AT_type(*$C$DW$T$29)
    3354                      .dwattr $C$DW$370, DW_AT_name("rsvd9_7")
    3355                      .dwattr $C$DW$370, DW_AT_TI_symbol_name("_rsvd9_7")
    3356                      .dwattr $C$DW$370, DW_AT_data_member_location[DW_OP_plus_uconst 0xec]
    3357                      .dwattr $C$DW$370, DW_AT_accessibility(DW_ACCESS_public)
    3358              
    3359              $C$DW$371       .dwtag  DW_TAG_member
    3360                      .dwattr $C$DW$371, DW_AT_type(*$C$DW$T$29)
    3361                      .dwattr $C$DW$371, DW_AT_name("rsvd9_8")
    3362                      .dwattr $C$DW$371, DW_AT_TI_symbol_name("_rsvd9_8")
    3363                      .dwattr $C$DW$371, DW_AT_data_member_location[DW_OP_plus_uconst 0xee]
    3364                      .dwattr $C$DW$371, DW_AT_accessibility(DW_ACCESS_public)
TMS320C2000 Assembler PC v16.9.1 Wed Jan 04 15:50:42 2017

Tools Copyright (c) 1996-2015 Texas Instruments Incorporated
C:\Users\ROSSYE~1\AppData\Local\Temp\0152010                         PAGE   63

    3365              
    3366              $C$DW$372       .dwtag  DW_TAG_member
    3367                      .dwattr $C$DW$372, DW_AT_type(*$C$DW$T$29)
    3368                      .dwattr $C$DW$372, DW_AT_name("ADCINT1")
    3369                      .dwattr $C$DW$372, DW_AT_TI_symbol_name("_ADCINT1")
    3370                      .dwattr $C$DW$372, DW_AT_data_member_location[DW_OP_plus_uconst 0xf0]
    3371                      .dwattr $C$DW$372, DW_AT_accessibility(DW_ACCESS_public)
    3372              
    3373              $C$DW$373       .dwtag  DW_TAG_member
    3374                      .dwattr $C$DW$373, DW_AT_type(*$C$DW$T$29)
    3375                      .dwattr $C$DW$373, DW_AT_name("ADCINT2")
    3376                      .dwattr $C$DW$373, DW_AT_TI_symbol_name("_ADCINT2")
    3377                      .dwattr $C$DW$373, DW_AT_data_member_location[DW_OP_plus_uconst 0xf2]
    3378                      .dwattr $C$DW$373, DW_AT_accessibility(DW_ACCESS_public)
    3379              
    3380              $C$DW$374       .dwtag  DW_TAG_member
    3381                      .dwattr $C$DW$374, DW_AT_type(*$C$DW$T$29)
    3382                      .dwattr $C$DW$374, DW_AT_name("ADCINT3")
    3383                      .dwattr $C$DW$374, DW_AT_TI_symbol_name("_ADCINT3")
    3384                      .dwattr $C$DW$374, DW_AT_data_member_location[DW_OP_plus_uconst 0xf4]
    3385                      .dwattr $C$DW$374, DW_AT_accessibility(DW_ACCESS_public)
    3386              
    3387              $C$DW$375       .dwtag  DW_TAG_member
    3388                      .dwattr $C$DW$375, DW_AT_type(*$C$DW$T$29)
    3389                      .dwattr $C$DW$375, DW_AT_name("ADCINT4")
    3390                      .dwattr $C$DW$375, DW_AT_TI_symbol_name("_ADCINT4")
    3391                      .dwattr $C$DW$375, DW_AT_data_member_location[DW_OP_plus_uconst 0xf6]
    3392                      .dwattr $C$DW$375, DW_AT_accessibility(DW_ACCESS_public)
    3393              
    3394              $C$DW$376       .dwtag  DW_TAG_member
    3395                      .dwattr $C$DW$376, DW_AT_type(*$C$DW$T$29)
    3396                      .dwattr $C$DW$376, DW_AT_name("ADCINT5")
    3397                      .dwattr $C$DW$376, DW_AT_TI_symbol_name("_ADCINT5")
    3398                      .dwattr $C$DW$376, DW_AT_data_member_location[DW_OP_plus_uconst 0xf8]
    3399                      .dwattr $C$DW$376, DW_AT_accessibility(DW_ACCESS_public)
    3400              
    3401              $C$DW$377       .dwtag  DW_TAG_member
    3402                      .dwattr $C$DW$377, DW_AT_type(*$C$DW$T$29)
    3403                      .dwattr $C$DW$377, DW_AT_name("ADCINT6")
    3404                      .dwattr $C$DW$377, DW_AT_TI_symbol_name("_ADCINT6")
    3405                      .dwattr $C$DW$377, DW_AT_data_member_location[DW_OP_plus_uconst 0xfa]
    3406                      .dwattr $C$DW$377, DW_AT_accessibility(DW_ACCESS_public)
    3407              
    3408              $C$DW$378       .dwtag  DW_TAG_member
    3409                      .dwattr $C$DW$378, DW_AT_type(*$C$DW$T$29)
    3410                      .dwattr $C$DW$378, DW_AT_name("ADCINT7")
    3411                      .dwattr $C$DW$378, DW_AT_TI_symbol_name("_ADCINT7")
    3412                      .dwattr $C$DW$378, DW_AT_data_member_location[DW_OP_plus_uconst 0xfc]
    3413                      .dwattr $C$DW$378, DW_AT_accessibility(DW_ACCESS_public)
    3414              
    3415              $C$DW$379       .dwtag  DW_TAG_member
    3416                      .dwattr $C$DW$379, DW_AT_type(*$C$DW$T$29)
    3417                      .dwattr $C$DW$379, DW_AT_name("ADCINT8")
    3418                      .dwattr $C$DW$379, DW_AT_TI_symbol_name("_ADCINT8")
    3419                      .dwattr $C$DW$379, DW_AT_data_member_location[DW_OP_plus_uconst 0xfe]
TMS320C2000 Assembler PC v16.9.1 Wed Jan 04 15:50:42 2017

Tools Copyright (c) 1996-2015 Texas Instruments Incorporated
C:\Users\ROSSYE~1\AppData\Local\Temp\0152010                         PAGE   64

    3420                      .dwattr $C$DW$379, DW_AT_accessibility(DW_ACCESS_public)
    3421              
    3422              $C$DW$380       .dwtag  DW_TAG_member
    3423                      .dwattr $C$DW$380, DW_AT_type(*$C$DW$T$29)
    3424                      .dwattr $C$DW$380, DW_AT_name("rsvd11_1")
    3425                      .dwattr $C$DW$380, DW_AT_TI_symbol_name("_rsvd11_1")
